---
triple:          'arm64-apple-darwin'
binary-path:     a.out
relocations:
  - { offsetInCU: 0xBD, offset: 0xBD, size: 0x8, addend: 0x0, symName: __ZSt17__size_to_integerm, symObjAddr: 0x0, symBinAddr: 0x100001F10, symSize: 0x14 }
  - { offsetInCU: 0xC5, offset: 0xC5, size: 0x8, addend: 0x0, symName: __ZSt19piecewise_construct, symObjAddr: 0x9AFC, symBinAddr: 0x10000D2E0, symSize: 0x0 }
  - { offsetInCU: 0x10B1, offset: 0x10B1, size: 0x8, addend: 0x0, symName: __ZSt19piecewise_construct, symObjAddr: 0x9AFC, symBinAddr: 0x10000D2E0, symSize: 0x0 }
  - { offsetInCU: 0x8539, offset: 0x8539, size: 0x8, addend: 0x0, symName: __ZStL8__ioinit, symObjAddr: 0xA8358, symBinAddr: 0x1000182D0, symSize: 0x0 }
  - { offsetInCU: 0xA125, offset: 0xA125, size: 0x8, addend: 0x0, symName: __ZL8bfs_time, symObjAddr: 0xA8360, symBinAddr: 0x1000182D8, symSize: 0x0 }
  - { offsetInCU: 0xA13F, offset: 0xA13F, size: 0x8, addend: 0x0, symName: __ZL8dfs_time, symObjAddr: 0xA8368, symBinAddr: 0x1000182E0, symSize: 0x0 }
  - { offsetInCU: 0x1E252, offset: 0x1E252, size: 0x8, addend: 0x0, symName: __ZNSt8__detail30__integer_to_chars_is_unsignedIjEE, symObjAddr: 0x9AFD, symBinAddr: 0x10000D2E1, symSize: 0x0 }
  - { offsetInCU: 0x1E26C, offset: 0x1E26C, size: 0x8, addend: 0x0, symName: __ZNSt8__detail30__integer_to_chars_is_unsignedImEE, symObjAddr: 0x9AFE, symBinAddr: 0x10000D2E2, symSize: 0x0 }
  - { offsetInCU: 0x1E286, offset: 0x1E286, size: 0x8, addend: 0x0, symName: __ZNSt8__detail30__integer_to_chars_is_unsignedIyEE, symObjAddr: 0x9AFF, symBinAddr: 0x10000D2E3, symSize: 0x0 }
  - { offsetInCU: 0x1E2C5, offset: 0x1E2C5, size: 0x8, addend: 0x0, symName: __ZN5Graph11bfsParallelEv, symObjAddr: 0x91C, symBinAddr: 0x10000282C, symSize: 0x3B4 }
  - { offsetInCU: 0x1E2CD, offset: 0x1E2CD, size: 0x8, addend: 0x0, symName: __ZN5Graph16isLayerReachableERK6VertexS2_, symObjAddr: 0xCD0, symBinAddr: 0x100002BE0, symSize: 0x12C }
  - { offsetInCU: 0x1E3CE, offset: 0x1E3CE, size: 0x8, addend: 0x0, symName: __ZN5Graph11bfsParallelEv._omp_fn.0, symObjAddr: 0x94CC, symBinAddr: 0x10000B3DC, symSize: 0x2F0 }
  - { offsetInCU: 0x1E3D6, offset: 0x1E3D6, size: 0x8, addend: 0x0, symName: __ZN5Graph11bfsParallelEv._omp_fn.1, symObjAddr: 0x97BC, symBinAddr: 0x10000B6CC, symSize: 0x340 }
  - { offsetInCU: 0x1E49E, offset: 0x1E49E, size: 0x8, addend: 0x0, symName: __ZN5Graph11bfsParallelEv._omp_fn.1, symObjAddr: 0x97BC, symBinAddr: 0x10000B6CC, symSize: 0x340 }
  - { offsetInCU: 0x1E4A6, offset: 0x1E4A6, size: 0x8, addend: 0x0, symName: __ZSt19piecewise_construct, symObjAddr: 0x9AFC, symBinAddr: 0x10000D2E0, symSize: 0x0 }
  - { offsetInCU: 0x1E92D, offset: 0x1E92D, size: 0x8, addend: 0x0, symName: __GLOBAL__sub_I_dinics_seq.cpp, symObjAddr: 0x94B8, symBinAddr: 0x10000B3C8, symSize: 0x14 }
  - { offsetInCU: 0x1E935, offset: 0x1E935, size: 0x8, addend: 0x0, symName: __ZN5Graph11bfsParallelEv._omp_fn.0, symObjAddr: 0x94CC, symBinAddr: 0x10000B3DC, symSize: 0x2F0 }
  - { offsetInCU: 0x1E953, offset: 0x1E953, size: 0x8, addend: 0x0, symName: __Z41__static_initialization_and_destruction_0v, symObjAddr: 0x947C, symBinAddr: 0x10000B38C, symSize: 0x3C }
  - { offsetInCU: 0x1E95B, offset: 0x1E95B, size: 0x8, addend: 0x0, symName: __GLOBAL__sub_I_dinics_seq.cpp, symObjAddr: 0x94B8, symBinAddr: 0x10000B3C8, symSize: 0x14 }
  - { offsetInCU: 0x1E945, offset: 0x1E945, size: 0x8, addend: 0x0, symName: __ZNSt10_Head_baseILm0EOiLb0EE7_M_headERS1_, symObjAddr: 0x9464, symBinAddr: 0x10000B374, symSize: 0x18 }
  - { offsetInCU: 0x1E94D, offset: 0x1E94D, size: 0x8, addend: 0x0, symName: __Z41__static_initialization_and_destruction_0v, symObjAddr: 0x947C, symBinAddr: 0x10000B38C, symSize: 0x3C }
  - { offsetInCU: 0x1E976, offset: 0x1E976, size: 0x8, addend: 0x0, symName: __ZNSt10_Head_baseILm0ERKiLb0EE7_M_headERS2_, symObjAddr: 0x944C, symBinAddr: 0x10000B35C, symSize: 0x18 }
  - { offsetInCU: 0x1E97E, offset: 0x1E97E, size: 0x8, addend: 0x0, symName: __ZNSt10_Head_baseILm0EOiLb0EE7_M_headERS1_, symObjAddr: 0x9464, symBinAddr: 0x10000B374, symSize: 0x18 }
  - { offsetInCU: 0x1E9A7, offset: 0x1E9A7, size: 0x8, addend: 0x0, symName: __ZNSt11_Tuple_implILm0EJOiEE7_M_headERS1_, symObjAddr: 0x9430, symBinAddr: 0x10000B340, symSize: 0x1C }
  - { offsetInCU: 0x1E9AF, offset: 0x1E9AF, size: 0x8, addend: 0x0, symName: __ZNSt10_Head_baseILm0ERKiLb0EE7_M_headERS2_, symObjAddr: 0x944C, symBinAddr: 0x10000B35C, symSize: 0x18 }
  - { offsetInCU: 0x1E9D9, offset: 0x1E9D9, size: 0x8, addend: 0x0, symName: __ZNSt11__copy_moveILb0ELb0ESt26random_access_iterator_tagE12__assign_oneIPiS3_EEvPT_PT0_, symObjAddr: 0x9408, symBinAddr: 0x10000B318, symSize: 0x28 }
  - { offsetInCU: 0x1E9E1, offset: 0x1E9E1, size: 0x8, addend: 0x0, symName: __ZNSt11_Tuple_implILm0EJOiEE7_M_headERS1_, symObjAddr: 0x9430, symBinAddr: 0x10000B340, symSize: 0x1C }
  - { offsetInCU: 0x1EA39, offset: 0x1EA39, size: 0x8, addend: 0x0, symName: __ZNSt11_Tuple_implILm0EJRKiEE7_M_headERS2_, symObjAddr: 0x93EC, symBinAddr: 0x10000B2FC, symSize: 0x1C }
  - { offsetInCU: 0x1EA41, offset: 0x1EA41, size: 0x8, addend: 0x0, symName: __ZNSt11__copy_moveILb0ELb0ESt26random_access_iterator_tagE12__assign_oneIPiS3_EEvPT_PT0_, symObjAddr: 0x9408, symBinAddr: 0x10000B318, symSize: 0x28 }
  - { offsetInCU: 0x1EAC8, offset: 0x1EAC8, size: 0x8, addend: 0x0, symName: __ZSt12__get_helperILm0EOiJEERT0_RSt11_Tuple_implIXT_EJS1_DpT1_EE, symObjAddr: 0x93D0, symBinAddr: 0x10000B2E0, symSize: 0x1C }
  - { offsetInCU: 0x1EAD0, offset: 0x1EAD0, size: 0x8, addend: 0x0, symName: __ZNSt11_Tuple_implILm0EJRKiEE7_M_headERS2_, symObjAddr: 0x93EC, symBinAddr: 0x10000B2FC, symSize: 0x1C }
  - { offsetInCU: 0x1EACA, offset: 0x1EACA, size: 0x8, addend: 0x0, symName: __ZNSt20__copy_move_backwardILb0ELb1ESt26random_access_iterator_tagE13__copy_move_bIPiS3_EEPT0_PT_S7_S5_, symObjAddr: 0x9324, symBinAddr: 0x10000B234, symSize: 0xAC }
  - { offsetInCU: 0x1EAD2, offset: 0x1EAD2, size: 0x8, addend: 0x0, symName: __ZSt12__get_helperILm0EOiJEERT0_RSt11_Tuple_implIXT_EJS1_DpT1_EE, symObjAddr: 0x93D0, symBinAddr: 0x10000B2E0, symSize: 0x1C }
  - { offsetInCU: 0x1EB52, offset: 0x1EB52, size: 0x8, addend: 0x0, symName: __ZNSt11__copy_moveILb0ELb1ESt26random_access_iterator_tagE8__copy_mIPiS3_EEPT0_PT_S7_S5_, symObjAddr: 0x9294, symBinAddr: 0x10000B1A4, symSize: 0x90 }
  - { offsetInCU: 0x1EB5A, offset: 0x1EB5A, size: 0x8, addend: 0x0, symName: __ZNSt20__copy_move_backwardILb0ELb1ESt26random_access_iterator_tagE13__copy_move_bIPiS3_EEPT0_PT_S7_S5_, symObjAddr: 0x9324, symBinAddr: 0x10000B234, symSize: 0xAC }
  - { offsetInCU: 0x1EC56, offset: 0x1EC56, size: 0x8, addend: 0x0, symName: __ZSt12__get_helperILm0ERKiJEERT0_RSt11_Tuple_implIXT_EJS2_DpT1_EE, symObjAddr: 0x9278, symBinAddr: 0x10000B188, symSize: 0x1C }
  - { offsetInCU: 0x1EC5E, offset: 0x1EC5E, size: 0x8, addend: 0x0, symName: __ZNSt11__copy_moveILb0ELb1ESt26random_access_iterator_tagE8__copy_mIPiS3_EEPT0_PT_S7_S5_, symObjAddr: 0x9294, symBinAddr: 0x10000B1A4, symSize: 0x90 }
  - { offsetInCU: 0x1EC57, offset: 0x1EC57, size: 0x8, addend: 0x0, symName: __ZNK9__gnu_cxx16__aligned_bufferISt4pairIKi4EdgeEE7_M_addrEv, symObjAddr: 0x9264, symBinAddr: 0x10000B174, symSize: 0x14 }
  - { offsetInCU: 0x1EC5F, offset: 0x1EC5F, size: 0x8, addend: 0x0, symName: __ZSt12__get_helperILm0ERKiJEERT0_RSt11_Tuple_implIXT_EJS2_DpT1_EE, symObjAddr: 0x9278, symBinAddr: 0x10000B188, symSize: 0x1C }
  - { offsetInCU: 0x1ECD2, offset: 0x1ECD2, size: 0x8, addend: 0x0, symName: __ZSt7forwardIOiEOT_RNSt16remove_referenceIS1_E4typeE, symObjAddr: 0x9250, symBinAddr: 0x10000B160, symSize: 0x14 }
  - { offsetInCU: 0x1ECDA, offset: 0x1ECDA, size: 0x8, addend: 0x0, symName: __ZNK9__gnu_cxx16__aligned_bufferISt4pairIKi4EdgeEE7_M_addrEv, symObjAddr: 0x9264, symBinAddr: 0x10000B174, symSize: 0x14 }
  - { offsetInCU: 0x1ED39, offset: 0x1ED39, size: 0x8, addend: 0x0, symName: __ZSt3getILm0EJOiEERNSt13tuple_elementIXT_ESt5tupleIJDpT0_EEE4typeERS5_, symObjAddr: 0x9234, symBinAddr: 0x10000B144, symSize: 0x1C }
  - { offsetInCU: 0x1ED41, offset: 0x1ED41, size: 0x8, addend: 0x0, symName: __ZSt7forwardIOiEOT_RNSt16remove_referenceIS1_E4typeE, symObjAddr: 0x9250, symBinAddr: 0x10000B160, symSize: 0x14 }
  - { offsetInCU: 0x1EDA3, offset: 0x1EDA3, size: 0x8, addend: 0x0, symName: __ZSt23__copy_move_backward_a2ILb0EPPiS1_ET1_T0_S3_S2_, symObjAddr: 0x9208, symBinAddr: 0x10000B118, symSize: 0x2C }
  - { offsetInCU: 0x1EDAB, offset: 0x1EDAB, size: 0x8, addend: 0x0, symName: __ZSt3getILm0EJOiEERNSt13tuple_elementIXT_ESt5tupleIJDpT0_EEE4typeERS5_, symObjAddr: 0x9234, symBinAddr: 0x10000B144, symSize: 0x1C }
  - { offsetInCU: 0x1EE20, offset: 0x1EE20, size: 0x8, addend: 0x0, symName: __ZSt14__copy_move_a2ILb0EPPiS1_ET1_T0_S3_S2_, symObjAddr: 0x91DC, symBinAddr: 0x10000B0EC, symSize: 0x2C }
  - { offsetInCU: 0x1EE28, offset: 0x1EE28, size: 0x8, addend: 0x0, symName: __ZSt23__copy_move_backward_a2ILb0EPPiS1_ET1_T0_S3_S2_, symObjAddr: 0x9208, symBinAddr: 0x10000B118, symSize: 0x2C }
  - { offsetInCU: 0x1EE59, offset: 0x1EE59, size: 0x8, addend: 0x0, symName: __ZNSt15__new_allocatorIPNSt8__detail15_Hash_node_baseEE8allocateEmPKv, symObjAddr: 0x9160, symBinAddr: 0x10000B070, symSize: 0x7C }
  - { offsetInCU: 0x1EE61, offset: 0x1EE61, size: 0x8, addend: 0x0, symName: __ZSt14__copy_move_a2ILb0EPPiS1_ET1_T0_S3_S2_, symObjAddr: 0x91DC, symBinAddr: 0x10000B0EC, symSize: 0x2C }
  - { offsetInCU: 0x1EF42, offset: 0x1EF42, size: 0x8, addend: 0x0, symName: __ZSt3getILm0EJRKiEERNSt13tuple_elementIXT_ESt5tupleIJDpT0_EEE4typeERS6_, symObjAddr: 0x9144, symBinAddr: 0x10000B054, symSize: 0x1C }
  - { offsetInCU: 0x1EF4A, offset: 0x1EF4A, size: 0x8, addend: 0x0, symName: __ZNSt15__new_allocatorIPNSt8__detail15_Hash_node_baseEE8allocateEmPKv, symObjAddr: 0x9160, symBinAddr: 0x10000B070, symSize: 0x7C }
  - { offsetInCU: 0x1EF3E, offset: 0x1EF3E, size: 0x8, addend: 0x0, symName: __ZNK9__gnu_cxx16__aligned_bufferISt4pairIKi4EdgeEE6_M_ptrEv, symObjAddr: 0x9128, symBinAddr: 0x10000B038, symSize: 0x1C }
  - { offsetInCU: 0x1EF46, offset: 0x1EF46, size: 0x8, addend: 0x0, symName: __ZSt3getILm0EJRKiEERNSt13tuple_elementIXT_ESt5tupleIJDpT0_EEE4typeERS6_, symObjAddr: 0x9144, symBinAddr: 0x10000B054, symSize: 0x1C }
  - { offsetInCU: 0x1EFE5, offset: 0x1EFE5, size: 0x8, addend: 0x0, symName: __ZSt9__fill_a1IPiiEN9__gnu_cxx11__enable_ifIXsrSt11__is_scalarIT0_E7__valueEvE6__typeET_S8_RKS4_, symObjAddr: 0x90D0, symBinAddr: 0x10000AFE0, symSize: 0x58 }
  - { offsetInCU: 0x1EFED, offset: 0x1EFED, size: 0x8, addend: 0x0, symName: __ZNK9__gnu_cxx16__aligned_bufferISt4pairIKi4EdgeEE6_M_ptrEv, symObjAddr: 0x9128, symBinAddr: 0x10000B038, symSize: 0x1C }
  - { offsetInCU: 0x1F100, offset: 0x1F100, size: 0x8, addend: 0x0, symName: __ZNSt4pairIKi4EdgeEC1IJOiEJLm0EEJEJEEERSt5tupleIJDpT_EERS5_IJDpT1_EESt12_Index_tupleIJXspT0_EEESE_IJXspT2_EEE, symObjAddr: 0x9080, symBinAddr: 0x10000AF90, symSize: 0x50 }
  - { offsetInCU: 0x1F108, offset: 0x1F108, size: 0x8, addend: 0x0, symName: __ZSt9__fill_a1IPiiEN9__gnu_cxx11__enable_ifIXsrSt11__is_scalarIT0_E7__valueEvE6__typeET_S8_RKS4_, symObjAddr: 0x90D0, symBinAddr: 0x10000AFE0, symSize: 0x58 }
  - { offsetInCU: 0x1F1C1, offset: 0x1F1C1, size: 0x8, addend: 0x0, symName: __ZSt11__addressofINSt8__detail10_Hash_nodeISt4pairIK6Vertex4EdgeELb1EEEEPT_RS8_, symObjAddr: 0x906C, symBinAddr: 0x10000AF7C, symSize: 0x14 }
  - { offsetInCU: 0x1F1C9, offset: 0x1F1C9, size: 0x8, addend: 0x0, symName: __ZNSt4pairIKi4EdgeEC1IJOiEJLm0EEJEJEEERSt5tupleIJDpT_EERS5_IJDpT1_EESt12_Index_tupleIJXspT0_EEESE_IJXspT2_EEE, symObjAddr: 0x9080, symBinAddr: 0x10000AF90, symSize: 0x50 }
  - { offsetInCU: 0x1F1D3, offset: 0x1F1D3, size: 0x8, addend: 0x0, symName: __ZSt23__copy_move_backward_a1ILb0EPPiS1_ET1_T0_S3_S2_, symObjAddr: 0x9040, symBinAddr: 0x10000AF50, symSize: 0x2C }
  - { offsetInCU: 0x1F1DB, offset: 0x1F1DB, size: 0x8, addend: 0x0, symName: __ZSt11__addressofINSt8__detail10_Hash_nodeISt4pairIK6Vertex4EdgeELb1EEEEPT_RS8_, symObjAddr: 0x906C, symBinAddr: 0x10000AF7C, symSize: 0x14 }
  - { offsetInCU: 0x1F235, offset: 0x1F235, size: 0x8, addend: 0x0, symName: __ZSt12__niter_wrapIPPiET_RKS2_S2_, symObjAddr: 0x9028, symBinAddr: 0x10000AF38, symSize: 0x18 }
  - { offsetInCU: 0x1F23D, offset: 0x1F23D, size: 0x8, addend: 0x0, symName: __ZSt23__copy_move_backward_a1ILb0EPPiS1_ET1_T0_S3_S2_, symObjAddr: 0x9040, symBinAddr: 0x10000AF50, symSize: 0x2C }
  - { offsetInCU: 0x1F2A9, offset: 0x1F2A9, size: 0x8, addend: 0x0, symName: __ZSt14__copy_move_a1ILb0EPPiS1_ET1_T0_S3_S2_, symObjAddr: 0x8FFC, symBinAddr: 0x10000AF0C, symSize: 0x2C }
  - { offsetInCU: 0x1F2B1, offset: 0x1F2B1, size: 0x8, addend: 0x0, symName: __ZSt12__niter_wrapIPPiET_RKS2_S2_, symObjAddr: 0x9028, symBinAddr: 0x10000AF38, symSize: 0x18 }
  - { offsetInCU: 0x1F318, offset: 0x1F318, size: 0x8, addend: 0x0, symName: __ZSt12__niter_baseIPPiET_S2_, symObjAddr: 0x8FE8, symBinAddr: 0x10000AEF8, symSize: 0x14 }
  - { offsetInCU: 0x1F320, offset: 0x1F320, size: 0x8, addend: 0x0, symName: __ZSt14__copy_move_a1ILb0EPPiS1_ET1_T0_S3_S2_, symObjAddr: 0x8FFC, symBinAddr: 0x10000AF0C, symSize: 0x2C }
  - { offsetInCU: 0x1F32E, offset: 0x1F32E, size: 0x8, addend: 0x0, symName: __ZNSt8__detail16_Hashtable_allocISaINS_10_Hash_nodeISt4pairIKi4EdgeELb0EEEEE21_M_deallocate_bucketsEPPNS_15_Hash_node_baseEm, symObjAddr: 0x8F70, symBinAddr: 0x10000AE80, symSize: 0x78 }
  - { offsetInCU: 0x1F336, offset: 0x1F336, size: 0x8, addend: 0x0, symName: __ZSt12__niter_baseIPPiET_S2_, symObjAddr: 0x8FE8, symBinAddr: 0x10000AEF8, symSize: 0x14 }
  - { offsetInCU: 0x1F461, offset: 0x1F461, size: 0x8, addend: 0x0, symName: __ZNKSt10_HashtableIiSt4pairIKi4EdgeESaIS3_ENSt8__detail10_Select1stESt8equal_toIiESt4hashIiENS5_18_Mod_range_hashingENS5_20_Default_ranged_hashENS5_20_Prime_rehash_policyENS5_17_Hashtable_traitsILb0ELb0ELb1EEEE21_M_uses_single_bucketEPPNS5_15_Hash_node_baseE, symObjAddr: 0x8F34, symBinAddr: 0x10000AE44, symSize: 0x3C }
  - { offsetInCU: 0x1F469, offset: 0x1F469, size: 0x8, addend: 0x0, symName: __ZNSt8__detail16_Hashtable_allocISaINS_10_Hash_nodeISt4pairIKi4EdgeELb0EEEEE21_M_deallocate_bucketsEPPNS_15_Hash_node_baseEm, symObjAddr: 0x8F70, symBinAddr: 0x10000AE80, symSize: 0x78 }
  - { offsetInCU: 0x1F510, offset: 0x1F510, size: 0x8, addend: 0x0, symName: __ZSt12__to_addressIPNSt8__detail15_Hash_node_baseEEPT_S4_, symObjAddr: 0x8F20, symBinAddr: 0x10000AE30, symSize: 0x14 }
  - { offsetInCU: 0x1F518, offset: 0x1F518, size: 0x8, addend: 0x0, symName: __ZNKSt10_HashtableIiSt4pairIKi4EdgeESaIS3_ENSt8__detail10_Select1stESt8equal_toIiESt4hashIiENS5_18_Mod_range_hashingENS5_20_Default_ranged_hashENS5_20_Prime_rehash_policyENS5_17_Hashtable_traitsILb0ELb0ELb1EEEE21_M_uses_single_bucketEPPNS5_15_Hash_node_baseE, symObjAddr: 0x8F34, symBinAddr: 0x10000AE44, symSize: 0x3C }
  - { offsetInCU: 0x1F5E6, offset: 0x1F5E6, size: 0x8, addend: 0x0, symName: __ZSt11__addressofINSt8__detail10_Hash_nodeISt4pairIKi4EdgeELb0EEEEPT_RS7_, symObjAddr: 0x8F0C, symBinAddr: 0x10000AE1C, symSize: 0x14 }
  - { offsetInCU: 0x1F5EE, offset: 0x1F5EE, size: 0x8, addend: 0x0, symName: __ZSt12__to_addressIPNSt8__detail15_Hash_node_baseEEPT_S4_, symObjAddr: 0x8F20, symBinAddr: 0x10000AE30, symSize: 0x14 }
  - { offsetInCU: 0x1F686, offset: 0x1F686, size: 0x8, addend: 0x0, symName: __ZNSt4pairIKi4EdgeEC1IJRS0_EJLm0EEJEJEEERSt5tupleIJDpT_EERS5_IJDpT1_EESt12_Index_tupleIJXspT0_EEESE_IJXspT2_EEE, symObjAddr: 0x8EBC, symBinAddr: 0x10000ADCC, symSize: 0x50 }
  - { offsetInCU: 0x1F68E, offset: 0x1F68E, size: 0x8, addend: 0x0, symName: __ZSt11__addressofINSt8__detail10_Hash_nodeISt4pairIKi4EdgeELb0EEEEPT_RS7_, symObjAddr: 0x8F0C, symBinAddr: 0x10000AE1C, symSize: 0x14 }
  - { offsetInCU: 0x1F718, offset: 0x1F718, size: 0x8, addend: 0x0, symName: __ZSt7forwardIRKSt4pairIKi4EdgeEEOT_RNSt16remove_referenceIS6_E4typeE, symObjAddr: 0x8EA8, symBinAddr: 0x10000ADB8, symSize: 0x14 }
  - { offsetInCU: 0x1F720, offset: 0x1F720, size: 0x8, addend: 0x0, symName: __ZNSt4pairIKi4EdgeEC1IJRS0_EJLm0EEJEJEEERSt5tupleIJDpT_EERS5_IJDpT1_EESt12_Index_tupleIJXspT0_EEESE_IJXspT2_EEE, symObjAddr: 0x8EBC, symBinAddr: 0x10000ADCC, symSize: 0x50 }
  - { offsetInCU: 0x1F6F9, offset: 0x1F6F9, size: 0x8, addend: 0x0, symName: __ZNKSt8__detail21_Hash_node_value_baseISt4pairIKi4EdgeEE9_M_valptrEv, symObjAddr: 0x8E8C, symBinAddr: 0x10000AD9C, symSize: 0x1C }
  - { offsetInCU: 0x1F701, offset: 0x1F701, size: 0x8, addend: 0x0, symName: __ZSt7forwardIRKSt4pairIKi4EdgeEEOT_RNSt16remove_referenceIS6_E4typeE, symObjAddr: 0x8EA8, symBinAddr: 0x10000ADB8, symSize: 0x14 }
  - { offsetInCU: 0x1F728, offset: 0x1F728, size: 0x8, addend: 0x0, symName: __ZNKSt8__detail21_Hashtable_ebo_helperILi0ESt8equal_toIiELb1EE7_M_cgetEv, symObjAddr: 0x8E78, symBinAddr: 0x10000AD88, symSize: 0x14 }
  - { offsetInCU: 0x1F730, offset: 0x1F730, size: 0x8, addend: 0x0, symName: __ZNKSt8__detail21_Hash_node_value_baseISt4pairIKi4EdgeEE9_M_valptrEv, symObjAddr: 0x8E8C, symBinAddr: 0x10000AD9C, symSize: 0x1C }
  - { offsetInCU: 0x1F792, offset: 0x1F792, size: 0x8, addend: 0x0, symName: __ZSt12__niter_baseIPKiET_S2_, symObjAddr: 0x8E64, symBinAddr: 0x10000AD74, symSize: 0x14 }
  - { offsetInCU: 0x1F79A, offset: 0x1F79A, size: 0x8, addend: 0x0, symName: __ZNKSt8__detail21_Hashtable_ebo_helperILi0ESt8equal_toIiELb1EE7_M_cgetEv, symObjAddr: 0x8E78, symBinAddr: 0x10000AD88, symSize: 0x14 }
  - { offsetInCU: 0x1F7D7, offset: 0x1F7D7, size: 0x8, addend: 0x0, symName: __ZSt8__fill_aIPiiEvT_S1_RKT0_, symObjAddr: 0x8E34, symBinAddr: 0x10000AD44, symSize: 0x30 }
  - { offsetInCU: 0x1F7DF, offset: 0x1F7DF, size: 0x8, addend: 0x0, symName: __ZSt12__niter_baseIPKiET_S2_, symObjAddr: 0x8E64, symBinAddr: 0x10000AD74, symSize: 0x14 }
  - { offsetInCU: 0x1F81D, offset: 0x1F81D, size: 0x8, addend: 0x0, symName: __ZNSt8__detail16_Hashtable_allocISaINS_10_Hash_nodeISt4pairIKi4EdgeELb0EEEEE19_M_deallocate_nodesEPS6_, symObjAddr: 0x8DE4, symBinAddr: 0x10000ACF4, symSize: 0x50 }
  - { offsetInCU: 0x1F825, offset: 0x1F825, size: 0x8, addend: 0x0, symName: __ZSt8__fill_aIPiiEvT_S1_RKT0_, symObjAddr: 0x8E34, symBinAddr: 0x10000AD44, symSize: 0x30 }
  - { offsetInCU: 0x1F8F9, offset: 0x1F8F9, size: 0x8, addend: 0x0, symName: __ZNSt15__new_allocatorINSt8__detail10_Hash_nodeISt4pairIKi4EdgeELb0EEEED2Ev, symObjAddr: 0x8DD0, symBinAddr: 0x10000ACE0, symSize: 0x14 }
  - { offsetInCU: 0x1F901, offset: 0x1F901, size: 0x8, addend: 0x0, symName: __ZNSt8__detail16_Hashtable_allocISaINS_10_Hash_nodeISt4pairIKi4EdgeELb0EEEEE19_M_deallocate_nodesEPS6_, symObjAddr: 0x8DE4, symBinAddr: 0x10000ACF4, symSize: 0x50 }
  - { offsetInCU: 0x1F9A3, offset: 0x1F9A3, size: 0x8, addend: 0x0, symName: __ZNSt4pairIKi4EdgeEC1IJOiEJEEESt21piecewise_construct_tSt5tupleIJDpT_EES6_IJDpT0_EE, symObjAddr: 0x8D94, symBinAddr: 0x10000ACA4, symSize: 0x3C }
  - { offsetInCU: 0x1F9AB, offset: 0x1F9AB, size: 0x8, addend: 0x0, symName: __ZNSt15__new_allocatorINSt8__detail10_Hash_nodeISt4pairIKi4EdgeELb0EEEED2Ev, symObjAddr: 0x8DD0, symBinAddr: 0x10000ACE0, symSize: 0x14 }
  - { offsetInCU: 0x1FA06, offset: 0x1FA06, size: 0x8, addend: 0x0, symName: __ZNSt11_Tuple_implILm0EJOiEEC2EOS1_, symObjAddr: 0x8D6C, symBinAddr: 0x10000AC7C, symSize: 0x28 }
  - { offsetInCU: 0x1FA0E, offset: 0x1FA0E, size: 0x8, addend: 0x0, symName: __ZNSt4pairIKi4EdgeEC1IJOiEJEEESt21piecewise_construct_tSt5tupleIJDpT_EES6_IJDpT0_EE, symObjAddr: 0x8D94, symBinAddr: 0x10000ACA4, symSize: 0x3C }
  - { offsetInCU: 0x1FA1D, offset: 0x1FA1D, size: 0x8, addend: 0x0, symName: __ZNSt11__copy_moveILb0ELb0ESt26random_access_iterator_tagE12__assign_oneIiiEEvPT_PT0_, symObjAddr: 0x8D44, symBinAddr: 0x10000AC54, symSize: 0x28 }
  - { offsetInCU: 0x1FA25, offset: 0x1FA25, size: 0x8, addend: 0x0, symName: __ZNSt11_Tuple_implILm0EJOiEEC2EOS1_, symObjAddr: 0x8D6C, symBinAddr: 0x10000AC7C, symSize: 0x28 }
  - { offsetInCU: 0x1FA7D, offset: 0x1FA7D, size: 0x8, addend: 0x0, symName: __ZNSt11__copy_moveILb0ELb0ESt26random_access_iterator_tagE12__assign_oneIiKiEEvPT_PT0_, symObjAddr: 0x8D1C, symBinAddr: 0x10000AC2C, symSize: 0x28 }
  - { offsetInCU: 0x1FA85, offset: 0x1FA85, size: 0x8, addend: 0x0, symName: __ZNSt11__copy_moveILb0ELb0ESt26random_access_iterator_tagE12__assign_oneIiiEEvPT_PT0_, symObjAddr: 0x8D44, symBinAddr: 0x10000AC54, symSize: 0x28 }
  - { offsetInCU: 0x1FB48, offset: 0x1FB48, size: 0x8, addend: 0x0, symName: __ZSt11__addressofIPNSt8__detail15_Hash_node_baseEEPT_RS3_, symObjAddr: 0x8D08, symBinAddr: 0x10000AC18, symSize: 0x14 }
  - { offsetInCU: 0x1FB50, offset: 0x1FB50, size: 0x8, addend: 0x0, symName: __ZNSt11__copy_moveILb0ELb0ESt26random_access_iterator_tagE12__assign_oneIiKiEEvPT_PT0_, symObjAddr: 0x8D1C, symBinAddr: 0x10000AC2C, symSize: 0x28 }
  - { offsetInCU: 0x1FB28, offset: 0x1FB28, size: 0x8, addend: 0x0, symName: __ZNSt15__new_allocatorINSt8__detail10_Hash_nodeISt4pairIK6Vertex4EdgeELb1EEEE10deallocateEPS7_m, symObjAddr: 0x8CD8, symBinAddr: 0x10000ABE8, symSize: 0x30 }
  - { offsetInCU: 0x1FB30, offset: 0x1FB30, size: 0x8, addend: 0x0, symName: __ZSt11__addressofIPNSt8__detail15_Hash_node_baseEEPT_RS3_, symObjAddr: 0x8D08, symBinAddr: 0x10000AC18, symSize: 0x14 }
  - { offsetInCU: 0x1FC19, offset: 0x1FC19, size: 0x8, addend: 0x0, symName: __ZSt9addressofINSt8__detail10_Hash_nodeISt4pairIK6Vertex4EdgeELb1EEEEPT_RS8_, symObjAddr: 0x8CBC, symBinAddr: 0x10000ABCC, symSize: 0x1C }
  - { offsetInCU: 0x1FC21, offset: 0x1FC21, size: 0x8, addend: 0x0, symName: __ZNSt15__new_allocatorINSt8__detail10_Hash_nodeISt4pairIK6Vertex4EdgeELb1EEEE10deallocateEPS7_m, symObjAddr: 0x8CD8, symBinAddr: 0x10000ABE8, symSize: 0x30 }
  - { offsetInCU: 0x1FBCD, offset: 0x1FBCD, size: 0x8, addend: 0x0, symName: __ZN9__gnu_cxx16__aligned_bufferISt4pairIK6Vertex4EdgeEE7_M_addrEv, symObjAddr: 0x8CA8, symBinAddr: 0x10000ABB8, symSize: 0x14 }
  - { offsetInCU: 0x1FBD5, offset: 0x1FBD5, size: 0x8, addend: 0x0, symName: __ZSt9addressofINSt8__detail10_Hash_nodeISt4pairIK6Vertex4EdgeELb1EEEEPT_RS8_, symObjAddr: 0x8CBC, symBinAddr: 0x10000ABCC, symSize: 0x1C }
  - { offsetInCU: 0x1FC66, offset: 0x1FC66, size: 0x8, addend: 0x0, symName: __ZSt22__copy_move_backward_aILb0EPPiS1_ET1_T0_S3_S2_, symObjAddr: 0x8C48, symBinAddr: 0x10000AB58, symSize: 0x60 }
  - { offsetInCU: 0x1FC6E, offset: 0x1FC6E, size: 0x8, addend: 0x0, symName: __ZN9__gnu_cxx16__aligned_bufferISt4pairIK6Vertex4EdgeEE7_M_addrEv, symObjAddr: 0x8CA8, symBinAddr: 0x10000ABB8, symSize: 0x14 }
  - { offsetInCU: 0x1FCE3, offset: 0x1FCE3, size: 0x8, addend: 0x0, symName: __ZSt13__copy_move_aILb0EPPiS1_ET1_T0_S3_S2_, symObjAddr: 0x8BE8, symBinAddr: 0x10000AAF8, symSize: 0x60 }
  - { offsetInCU: 0x1FCEB, offset: 0x1FCEB, size: 0x8, addend: 0x0, symName: __ZSt22__copy_move_backward_aILb0EPPiS1_ET1_T0_S3_S2_, symObjAddr: 0x8C48, symBinAddr: 0x10000AB58, symSize: 0x60 }
  - { offsetInCU: 0x1FD54, offset: 0x1FD54, size: 0x8, addend: 0x0, symName: __ZSt12__miter_baseIPPiET_S2_, symObjAddr: 0x8BD4, symBinAddr: 0x10000AAE4, symSize: 0x14 }
  - { offsetInCU: 0x1FD5C, offset: 0x1FD5C, size: 0x8, addend: 0x0, symName: __ZSt13__copy_move_aILb0EPPiS1_ET1_T0_S3_S2_, symObjAddr: 0x8BE8, symBinAddr: 0x10000AAF8, symSize: 0x60 }
  - { offsetInCU: 0x1FD83, offset: 0x1FD83, size: 0x8, addend: 0x0, symName: __ZNSt10_HashtableIiSt4pairIKi4EdgeESaIS3_ENSt8__detail10_Select1stESt8equal_toIiESt4hashIiENS5_18_Mod_range_hashingENS5_20_Default_ranged_hashENS5_20_Prime_rehash_policyENS5_17_Hashtable_traitsILb0ELb0ELb1EEEE21_M_deallocate_bucketsEPPNS5_15_Hash_node_baseEm, symObjAddr: 0x8B84, symBinAddr: 0x10000AA94, symSize: 0x50 }
  - { offsetInCU: 0x1FD8B, offset: 0x1FD8B, size: 0x8, addend: 0x0, symName: __ZSt12__miter_baseIPPiET_S2_, symObjAddr: 0x8BD4, symBinAddr: 0x10000AAE4, symSize: 0x14 }
  - { offsetInCU: 0x1FDDA, offset: 0x1FDDA, size: 0x8, addend: 0x0, symName: __ZNSt8__detail16_Hashtable_allocISaINS_10_Hash_nodeISt4pairIKi4EdgeELb0EEEEE19_M_allocate_bucketsEm, symObjAddr: 0x8ACC, symBinAddr: 0x10000A9DC, symSize: 0xB8 }
  - { offsetInCU: 0x1FDE2, offset: 0x1FDE2, size: 0x8, addend: 0x0, symName: __ZNSt10_HashtableIiSt4pairIKi4EdgeESaIS3_ENSt8__detail10_Select1stESt8equal_toIiESt4hashIiENS5_18_Mod_range_hashingENS5_20_Default_ranged_hashENS5_20_Prime_rehash_policyENS5_17_Hashtable_traitsILb0ELb0ELb1EEEE21_M_deallocate_bucketsEPPNS5_15_Hash_node_baseEm, symObjAddr: 0x8B84, symBinAddr: 0x10000AA94, symSize: 0x50 }
  - { offsetInCU: 0x1FFB7, offset: 0x1FFB7, size: 0x8, addend: 0x0, symName: __ZSt9addressofINSt8__detail10_Hash_nodeISt4pairIKi4EdgeELb0EEEEPT_RS7_, symObjAddr: 0x8AB0, symBinAddr: 0x10000A9C0, symSize: 0x1C }
  - { offsetInCU: 0x1FFBF, offset: 0x1FFBF, size: 0x8, addend: 0x0, symName: __ZNSt8__detail16_Hashtable_allocISaINS_10_Hash_nodeISt4pairIKi4EdgeELb0EEEEE19_M_allocate_bucketsEm, symObjAddr: 0x8ACC, symBinAddr: 0x10000A9DC, symSize: 0xB8 }
  - { offsetInCU: 0x2001E, offset: 0x2001E, size: 0x8, addend: 0x0, symName: __ZNSt4pairIKi4EdgeEC1IJRS0_EJEEESt21piecewise_construct_tSt5tupleIJDpT_EES6_IJDpT0_EE, symObjAddr: 0x8A74, symBinAddr: 0x10000A984, symSize: 0x3C }
  - { offsetInCU: 0x20026, offset: 0x20026, size: 0x8, addend: 0x0, symName: __ZSt9addressofINSt8__detail10_Hash_nodeISt4pairIKi4EdgeELb0EEEEPT_RS7_, symObjAddr: 0x8AB0, symBinAddr: 0x10000A9C0, symSize: 0x1C }
  - { offsetInCU: 0x20080, offset: 0x20080, size: 0x8, addend: 0x0, symName: __ZNSt11_Tuple_implILm0EJRKiEEC2EOS2_, symObjAddr: 0x8A4C, symBinAddr: 0x10000A95C, symSize: 0x28 }
  - { offsetInCU: 0x20088, offset: 0x20088, size: 0x8, addend: 0x0, symName: __ZNSt4pairIKi4EdgeEC1IJRS0_EJEEESt21piecewise_construct_tSt5tupleIJDpT_EES6_IJDpT0_EE, symObjAddr: 0x8A74, symBinAddr: 0x10000A984, symSize: 0x3C }
  - { offsetInCU: 0x200AF, offset: 0x200AF, size: 0x8, addend: 0x0, symName: __ZNKSt8equal_toIiEclERKiS2_, symObjAddr: 0x8A18, symBinAddr: 0x10000A928, symSize: 0x34 }
  - { offsetInCU: 0x200B7, offset: 0x200B7, size: 0x8, addend: 0x0, symName: __ZNSt11_Tuple_implILm0EJRKiEEC2EOS2_, symObjAddr: 0x8A4C, symBinAddr: 0x10000A95C, symSize: 0x28 }
  - { offsetInCU: 0x20119, offset: 0x20119, size: 0x8, addend: 0x0, symName: __ZNKSt8__detail10_Select1stclIRKSt4pairIKi4EdgeEEEONS0_10__1st_typeIT_E4typeEOS9_, symObjAddr: 0x89F8, symBinAddr: 0x10000A908, symSize: 0x20 }
  - { offsetInCU: 0x20121, offset: 0x20121, size: 0x8, addend: 0x0, symName: __ZNKSt8equal_toIiEclERKiS2_, symObjAddr: 0x8A18, symBinAddr: 0x10000A928, symSize: 0x34 }
  - { offsetInCU: 0x20168, offset: 0x20168, size: 0x8, addend: 0x0, symName: __ZNKSt8__detail21_Hash_node_value_baseISt4pairIKi4EdgeEE4_M_vEv, symObjAddr: 0x89DC, symBinAddr: 0x10000A8EC, symSize: 0x1C }
  - { offsetInCU: 0x20170, offset: 0x20170, size: 0x8, addend: 0x0, symName: __ZNKSt8__detail10_Select1stclIRKSt4pairIKi4EdgeEEEONS0_10__1st_typeIT_E4typeEOS9_, symObjAddr: 0x89F8, symBinAddr: 0x10000A908, symSize: 0x20 }
  - { offsetInCU: 0x20197, offset: 0x20197, size: 0x8, addend: 0x0, symName: __ZNKSt8__detail15_Hashtable_baseIiSt4pairIKi4EdgeENS_10_Select1stESt8equal_toIiESt4hashIiENS_18_Mod_range_hashingENS_20_Default_ranged_hashENS_17_Hashtable_traitsILb0ELb0ELb1EEEE5_M_eqEv, symObjAddr: 0x89C0, symBinAddr: 0x10000A8D0, symSize: 0x1C }
  - { offsetInCU: 0x2019F, offset: 0x2019F, size: 0x8, addend: 0x0, symName: __ZNKSt8__detail21_Hash_node_value_baseISt4pairIKi4EdgeEE4_M_vEv, symObjAddr: 0x89DC, symBinAddr: 0x10000A8EC, symSize: 0x1C }
  - { offsetInCU: 0x2021D, offset: 0x2021D, size: 0x8, addend: 0x0, symName: __ZSt13__copy_move_aILb0EPKiPiET1_T0_S4_S3_, symObjAddr: 0x8960, symBinAddr: 0x10000A870, symSize: 0x60 }
  - { offsetInCU: 0x20225, offset: 0x20225, size: 0x8, addend: 0x0, symName: __ZNKSt8__detail15_Hashtable_baseIiSt4pairIKi4EdgeENS_10_Select1stESt8equal_toIiESt4hashIiENS_18_Mod_range_hashingENS_20_Default_ranged_hashENS_17_Hashtable_traitsILb0ELb0ELb1EEEE5_M_eqEv, symObjAddr: 0x89C0, symBinAddr: 0x10000A8D0, symSize: 0x1C }
  - { offsetInCU: 0x20290, offset: 0x20290, size: 0x8, addend: 0x0, symName: __ZSt12__miter_baseIPKiET_S2_, symObjAddr: 0x894C, symBinAddr: 0x10000A85C, symSize: 0x14 }
  - { offsetInCU: 0x20298, offset: 0x20298, size: 0x8, addend: 0x0, symName: __ZSt13__copy_move_aILb0EPKiPiET1_T0_S4_S3_, symObjAddr: 0x8960, symBinAddr: 0x10000A870, symSize: 0x60 }
  - { offsetInCU: 0x20311, offset: 0x20311, size: 0x8, addend: 0x0, symName: __ZSt10__fill_n_aIPimiET_S1_T0_RKT1_St26random_access_iterator_tag, symObjAddr: 0x88E8, symBinAddr: 0x10000A7F8, symSize: 0x64 }
  - { offsetInCU: 0x20319, offset: 0x20319, size: 0x8, addend: 0x0, symName: __ZSt12__miter_baseIPKiET_S2_, symObjAddr: 0x894C, symBinAddr: 0x10000A85C, symSize: 0x14 }
  - { offsetInCU: 0x2036A, offset: 0x2036A, size: 0x8, addend: 0x0, symName: __ZNSt10_HashtableIiSt4pairIKi4EdgeESaIS3_ENSt8__detail10_Select1stESt8equal_toIiESt4hashIiENS5_18_Mod_range_hashingENS5_20_Default_ranged_hashENS5_20_Prime_rehash_policyENS5_17_Hashtable_traitsILb0ELb0ELb1EEEE5clearEv, symObjAddr: 0x8884, symBinAddr: 0x10000A794, symSize: 0x64 }
  - { offsetInCU: 0x20372, offset: 0x20372, size: 0x8, addend: 0x0, symName: __ZSt10__fill_n_aIPimiET_S1_T0_RKT1_St26random_access_iterator_tag, symObjAddr: 0x88E8, symBinAddr: 0x10000A7F8, symSize: 0x64 }
  - { offsetInCU: 0x20437, offset: 0x20437, size: 0x8, addend: 0x0, symName: __ZNSt8__detail21_Hashtable_ebo_helperILi0ESaINS_10_Hash_nodeISt4pairIKi4EdgeELb0EEEELb1EEC2Ev, symObjAddr: 0x8858, symBinAddr: 0x10000A768, symSize: 0x2C }
  - { offsetInCU: 0x2043F, offset: 0x2043F, size: 0x8, addend: 0x0, symName: __ZNSt10_HashtableIiSt4pairIKi4EdgeESaIS3_ENSt8__detail10_Select1stESt8equal_toIiESt4hashIiENS5_18_Mod_range_hashingENS5_20_Default_ranged_hashENS5_20_Prime_rehash_policyENS5_17_Hashtable_traitsILb0ELb0ELb1EEEE5clearEv, symObjAddr: 0x8884, symBinAddr: 0x10000A794, symSize: 0x64 }
  - { offsetInCU: 0x204AF, offset: 0x204AF, size: 0x8, addend: 0x0, symName: __ZNSt8__detail21_Hashtable_ebo_helperILi0ESt8equal_toIiELb1EEC2Ev, symObjAddr: 0x8844, symBinAddr: 0x10000A754, symSize: 0x14 }
  - { offsetInCU: 0x204B7, offset: 0x204B7, size: 0x8, addend: 0x0, symName: __ZNSt8__detail21_Hashtable_ebo_helperILi0ESaINS_10_Hash_nodeISt4pairIKi4EdgeELb0EEEELb1EEC2Ev, symObjAddr: 0x8858, symBinAddr: 0x10000A768, symSize: 0x2C }
  - { offsetInCU: 0x204F3, offset: 0x204F3, size: 0x8, addend: 0x0, symName: __ZNSt8__detail21_Hashtable_ebo_helperILi1ESt4hashIiELb1EEC2Ev, symObjAddr: 0x8830, symBinAddr: 0x10000A740, symSize: 0x14 }
  - { offsetInCU: 0x204FB, offset: 0x204FB, size: 0x8, addend: 0x0, symName: __ZNSt8__detail21_Hashtable_ebo_helperILi0ESt8equal_toIiELb1EEC2Ev, symObjAddr: 0x8844, symBinAddr: 0x10000A754, symSize: 0x14 }
  - { offsetInCU: 0x205AC, offset: 0x205AC, size: 0x8, addend: 0x0, symName: __ZNSt5tupleIJOiEEC1EOS1_, symObjAddr: 0x8808, symBinAddr: 0x10000A718, symSize: 0x28 }
  - { offsetInCU: 0x205B4, offset: 0x205B4, size: 0x8, addend: 0x0, symName: __ZNSt8__detail21_Hashtable_ebo_helperILi1ESt4hashIiELb1EEC2Ev, symObjAddr: 0x8830, symBinAddr: 0x10000A740, symSize: 0x14 }
  - { offsetInCU: 0x2062C, offset: 0x2062C, size: 0x8, addend: 0x0, symName: __ZNSt10_Head_baseILm0EOiLb0EEC2IiEEOT_, symObjAddr: 0x87D8, symBinAddr: 0x10000A6E8, symSize: 0x30 }
  - { offsetInCU: 0x20634, offset: 0x20634, size: 0x8, addend: 0x0, symName: __ZNSt5tupleIJOiEEC1EOS1_, symObjAddr: 0x8808, symBinAddr: 0x10000A718, symSize: 0x28 }
  - { offsetInCU: 0x2064D, offset: 0x2064D, size: 0x8, addend: 0x0, symName: __ZNSt11__copy_moveILb0ELb1ESt26random_access_iterator_tagE8__copy_mIiiEEPT0_PT_S6_S4_, symObjAddr: 0x8748, symBinAddr: 0x10000A658, symSize: 0x90 }
  - { offsetInCU: 0x20655, offset: 0x20655, size: 0x8, addend: 0x0, symName: __ZNSt10_Head_baseILm0EOiLb0EEC2IiEEOT_, symObjAddr: 0x87D8, symBinAddr: 0x10000A6E8, symSize: 0x30 }
  - { offsetInCU: 0x206D5, offset: 0x206D5, size: 0x8, addend: 0x0, symName: __ZNSt11__copy_moveILb0ELb1ESt26random_access_iterator_tagE8__copy_mIKiiEEPT0_PT_S7_S5_, symObjAddr: 0x86B8, symBinAddr: 0x10000A5C8, symSize: 0x90 }
  - { offsetInCU: 0x206DD, offset: 0x206DD, size: 0x8, addend: 0x0, symName: __ZNSt11__copy_moveILb0ELb1ESt26random_access_iterator_tagE8__copy_mIiiEEPT0_PT_S6_S4_, symObjAddr: 0x8748, symBinAddr: 0x10000A658, symSize: 0x90 }
  - { offsetInCU: 0x2075D, offset: 0x2075D, size: 0x8, addend: 0x0, symName: __ZNSt15__new_allocatorIPNSt8__detail15_Hash_node_baseEE10deallocateEPS2_m, symObjAddr: 0x8688, symBinAddr: 0x10000A598, symSize: 0x30 }
  - { offsetInCU: 0x20765, offset: 0x20765, size: 0x8, addend: 0x0, symName: __ZNSt11__copy_moveILb0ELb1ESt26random_access_iterator_tagE8__copy_mIKiiEEPT0_PT_S7_S5_, symObjAddr: 0x86B8, symBinAddr: 0x10000A5C8, symSize: 0x90 }
  - { offsetInCU: 0x20815, offset: 0x20815, size: 0x8, addend: 0x0, symName: __ZNSt15__new_allocatorIPNSt8__detail15_Hash_node_baseEED2Ev, symObjAddr: 0x8674, symBinAddr: 0x10000A584, symSize: 0x14 }
  - { offsetInCU: 0x2081D, offset: 0x2081D, size: 0x8, addend: 0x0, symName: __ZNSt15__new_allocatorIPNSt8__detail15_Hash_node_baseEE10deallocateEPS2_m, symObjAddr: 0x8688, symBinAddr: 0x10000A598, symSize: 0x30 }
  - { offsetInCU: 0x20887, offset: 0x20887, size: 0x8, addend: 0x0, symName: __ZSt9addressofIPNSt8__detail15_Hash_node_baseEEPT_RS3_, symObjAddr: 0x8658, symBinAddr: 0x10000A568, symSize: 0x1C }
  - { offsetInCU: 0x2088F, offset: 0x2088F, size: 0x8, addend: 0x0, symName: __ZNSt15__new_allocatorIPNSt8__detail15_Hash_node_baseEED2Ev, symObjAddr: 0x8674, symBinAddr: 0x10000A584, symSize: 0x14 }
  - { offsetInCU: 0x208AD, offset: 0x208AD, size: 0x8, addend: 0x0, symName: __ZNSt19__ptr_traits_ptr_toIPNSt8__detail10_Hash_nodeISt4pairIK6Vertex4EdgeELb1EEES7_Lb0EE10pointer_toERS7_, symObjAddr: 0x863C, symBinAddr: 0x10000A54C, symSize: 0x1C }
  - { offsetInCU: 0x208B5, offset: 0x208B5, size: 0x8, addend: 0x0, symName: __ZSt9addressofIPNSt8__detail15_Hash_node_baseEEPT_RS3_, symObjAddr: 0x8658, symBinAddr: 0x10000A568, symSize: 0x1C }
  - { offsetInCU: 0x2095E, offset: 0x2095E, size: 0x8, addend: 0x0, symName: __ZNSt4pairIK6Vertex4EdgeED1Ev, symObjAddr: 0x861C, symBinAddr: 0x10000A52C, symSize: 0x20 }
  - { offsetInCU: 0x20966, offset: 0x20966, size: 0x8, addend: 0x0, symName: __ZNSt19__ptr_traits_ptr_toIPNSt8__detail10_Hash_nodeISt4pairIK6Vertex4EdgeELb1EEES7_Lb0EE10pointer_toERS7_, symObjAddr: 0x863C, symBinAddr: 0x10000A54C, symSize: 0x1C }
  - { offsetInCU: 0x2096F, offset: 0x2096F, size: 0x8, addend: 0x0, symName: __ZN9__gnu_cxx16__aligned_bufferISt4pairIK6Vertex4EdgeEE6_M_ptrEv, symObjAddr: 0x8600, symBinAddr: 0x10000A510, symSize: 0x1C }
  - { offsetInCU: 0x20977, offset: 0x20977, size: 0x8, addend: 0x0, symName: __ZNSt4pairIK6Vertex4EdgeED1Ev, symObjAddr: 0x861C, symBinAddr: 0x10000A52C, symSize: 0x20 }
  - { offsetInCU: 0x2099E, offset: 0x2099E, size: 0x8, addend: 0x0, symName: __ZNSt8__detail21_Hashtable_ebo_helperILi0ESaINS_10_Hash_nodeISt4pairIK6Vertex4EdgeELb1EEEELb1EE6_M_getEv, symObjAddr: 0x85EC, symBinAddr: 0x10000A4FC, symSize: 0x14 }
  - { offsetInCU: 0x209A6, offset: 0x209A6, size: 0x8, addend: 0x0, symName: __ZN9__gnu_cxx16__aligned_bufferISt4pairIK6Vertex4EdgeEE6_M_ptrEv, symObjAddr: 0x8600, symBinAddr: 0x10000A510, symSize: 0x1C }
  - { offsetInCU: 0x20A15, offset: 0x20A15, size: 0x8, addend: 0x0, symName: __ZSt13copy_backwardIPPiS1_ET0_T_S3_S2_, symObjAddr: 0x85A4, symBinAddr: 0x10000A4B4, symSize: 0x48 }
  - { offsetInCU: 0x20A1D, offset: 0x20A1D, size: 0x8, addend: 0x0, symName: __ZNSt8__detail21_Hashtable_ebo_helperILi0ESaINS_10_Hash_nodeISt4pairIK6Vertex4EdgeELb1EEEELb1EE6_M_getEv, symObjAddr: 0x85EC, symBinAddr: 0x10000A4FC, symSize: 0x14 }
  - { offsetInCU: 0x20A83, offset: 0x20A83, size: 0x8, addend: 0x0, symName: __ZSt4copyIPPiS1_ET0_T_S3_S2_, symObjAddr: 0x855C, symBinAddr: 0x10000A46C, symSize: 0x48 }
  - { offsetInCU: 0x20A8B, offset: 0x20A8B, size: 0x8, addend: 0x0, symName: __ZSt13copy_backwardIPPiS1_ET0_T_S3_S2_, symObjAddr: 0x85A4, symBinAddr: 0x10000A4B4, symSize: 0x48 }
  - { offsetInCU: 0x20B01, offset: 0x20B01, size: 0x8, addend: 0x0, symName: __ZNSt15__new_allocatorIPiE8allocateEmPKv, symObjAddr: 0x84E0, symBinAddr: 0x10000A3F0, symSize: 0x7C }
  - { offsetInCU: 0x20B09, offset: 0x20B09, size: 0x8, addend: 0x0, symName: __ZSt4copyIPPiS1_ET0_T_S3_S2_, symObjAddr: 0x855C, symBinAddr: 0x10000A46C, symSize: 0x48 }
  - { offsetInCU: 0x20B8A, offset: 0x20B8A, size: 0x8, addend: 0x0, symName: __ZNSt10_HashtableIiSt4pairIKi4EdgeESaIS3_ENSt8__detail10_Select1stESt8equal_toIiESt4hashIiENS5_18_Mod_range_hashingENS5_20_Default_ranged_hashENS5_20_Prime_rehash_policyENS5_17_Hashtable_traitsILb0ELb0ELb1EEEE21_M_deallocate_bucketsEv, symObjAddr: 0x84AC, symBinAddr: 0x10000A3BC, symSize: 0x34 }
  - { offsetInCU: 0x20B92, offset: 0x20B92, size: 0x8, addend: 0x0, symName: __ZNSt15__new_allocatorIPiE8allocateEmPKv, symObjAddr: 0x84E0, symBinAddr: 0x10000A3F0, symSize: 0x7C }
  - { offsetInCU: 0x20BB9, offset: 0x20BB9, size: 0x8, addend: 0x0, symName: __ZNSt10_HashtableIiSt4pairIKi4EdgeESaIS3_ENSt8__detail10_Select1stESt8equal_toIiESt4hashIiENS5_18_Mod_range_hashingENS5_20_Default_ranged_hashENS5_20_Prime_rehash_policyENS5_17_Hashtable_traitsILb0ELb0ELb1EEEE19_M_allocate_bucketsEm, symObjAddr: 0x8454, symBinAddr: 0x10000A364, symSize: 0x58 }
  - { offsetInCU: 0x20BC1, offset: 0x20BC1, size: 0x8, addend: 0x0, symName: __ZNSt10_HashtableIiSt4pairIKi4EdgeESaIS3_ENSt8__detail10_Select1stESt8equal_toIiESt4hashIiENS5_18_Mod_range_hashingENS5_20_Default_ranged_hashENS5_20_Prime_rehash_policyENS5_17_Hashtable_traitsILb0ELb0ELb1EEEE21_M_deallocate_bucketsEv, symObjAddr: 0x84AC, symBinAddr: 0x10000A3BC, symSize: 0x34 }
  - { offsetInCU: 0x20BFC, offset: 0x20BFC, size: 0x8, addend: 0x0, symName: __ZNSt19__ptr_traits_ptr_toIPNSt8__detail10_Hash_nodeISt4pairIKi4EdgeELb0EEES6_Lb0EE10pointer_toERS6_, symObjAddr: 0x8438, symBinAddr: 0x10000A348, symSize: 0x1C }
  - { offsetInCU: 0x20C04, offset: 0x20C04, size: 0x8, addend: 0x0, symName: __ZNSt10_HashtableIiSt4pairIKi4EdgeESaIS3_ENSt8__detail10_Select1stESt8equal_toIiESt4hashIiENS5_18_Mod_range_hashingENS5_20_Default_ranged_hashENS5_20_Prime_rehash_policyENS5_17_Hashtable_traitsILb0ELb0ELb1EEEE19_M_allocate_bucketsEm, symObjAddr: 0x8454, symBinAddr: 0x10000A364, symSize: 0x58 }
  - { offsetInCU: 0x20C64, offset: 0x20C64, size: 0x8, addend: 0x0, symName: __ZNSt15__new_allocatorINSt8__detail10_Hash_nodeISt4pairIKi4EdgeELb0EEEE10deallocateEPS6_m, symObjAddr: 0x83FC, symBinAddr: 0x10000A30C, symSize: 0x3C }
  - { offsetInCU: 0x20C6C, offset: 0x20C6C, size: 0x8, addend: 0x0, symName: __ZNSt19__ptr_traits_ptr_toIPNSt8__detail10_Hash_nodeISt4pairIKi4EdgeELb0EEES6_Lb0EE10pointer_toERS6_, symObjAddr: 0x8438, symBinAddr: 0x10000A348, symSize: 0x1C }
  - { offsetInCU: 0x20D6E, offset: 0x20D6E, size: 0x8, addend: 0x0, symName: __ZNSt5tupleIJRKiEEC1EOS2_, symObjAddr: 0x83D4, symBinAddr: 0x10000A2E4, symSize: 0x28 }
  - { offsetInCU: 0x20D76, offset: 0x20D76, size: 0x8, addend: 0x0, symName: __ZNSt15__new_allocatorINSt8__detail10_Hash_nodeISt4pairIKi4EdgeELb0EEEE10deallocateEPS6_m, symObjAddr: 0x83FC, symBinAddr: 0x10000A30C, symSize: 0x3C }
  - { offsetInCU: 0x20D8F, offset: 0x20D8F, size: 0x8, addend: 0x0, symName: __ZNSt15__new_allocatorINSt8__detail10_Hash_nodeISt4pairIKi4EdgeELb0EEEE8allocateEmPKv, symObjAddr: 0x8344, symBinAddr: 0x10000A254, symSize: 0x90 }
  - { offsetInCU: 0x20D97, offset: 0x20D97, size: 0x8, addend: 0x0, symName: __ZNSt5tupleIJRKiEEC1EOS2_, symObjAddr: 0x83D4, symBinAddr: 0x10000A2E4, symSize: 0x28 }
  - { offsetInCU: 0x20E18, offset: 0x20E18, size: 0x8, addend: 0x0, symName: __ZNSt8__detail21_Hashtable_ebo_helperILi0ESaINS_10_Hash_nodeISt4pairIKi4EdgeELb0EEEELb1EE6_M_getEv, symObjAddr: 0x8330, symBinAddr: 0x10000A240, symSize: 0x14 }
  - { offsetInCU: 0x20E20, offset: 0x20E20, size: 0x8, addend: 0x0, symName: __ZNSt15__new_allocatorINSt8__detail10_Hash_nodeISt4pairIKi4EdgeELb0EEEE8allocateEmPKv, symObjAddr: 0x8344, symBinAddr: 0x10000A254, symSize: 0x90 }
  - { offsetInCU: 0x20E47, offset: 0x20E47, size: 0x8, addend: 0x0, symName: __ZNKSt8__detail15_Hash_code_baseIiSt4pairIKi4EdgeENS_10_Select1stESt4hashIiENS_18_Mod_range_hashingENS_20_Default_ranged_hashELb0EE15_M_bucket_indexERKNS_16_Hash_node_valueIS4_Lb0EEEm, symObjAddr: 0x82E4, symBinAddr: 0x10000A1F4, symSize: 0x4C }
  - { offsetInCU: 0x20E4F, offset: 0x20E4F, size: 0x8, addend: 0x0, symName: __ZNSt8__detail21_Hashtable_ebo_helperILi0ESaINS_10_Hash_nodeISt4pairIKi4EdgeELb0EEEELb1EE6_M_getEv, symObjAddr: 0x8330, symBinAddr: 0x10000A240, symSize: 0x14 }
  - { offsetInCU: 0x20E9E, offset: 0x20E9E, size: 0x8, addend: 0x0, symName: __ZNKSt8__detail15_Hashtable_baseIiSt4pairIKi4EdgeENS_10_Select1stESt8equal_toIiESt4hashIiENS_18_Mod_range_hashingENS_20_Default_ranged_hashENS_17_Hashtable_traitsILb0ELb0ELb1EEEE13_M_key_equalsERS2_RKNS_16_Hash_node_valueIS4_Lb0EEE, symObjAddr: 0x828C, symBinAddr: 0x10000A19C, symSize: 0x58 }
  - { offsetInCU: 0x20EA6, offset: 0x20EA6, size: 0x8, addend: 0x0, symName: __ZNKSt8__detail15_Hash_code_baseIiSt4pairIKi4EdgeENS_10_Select1stESt4hashIiENS_18_Mod_range_hashingENS_20_Default_ranged_hashELb0EE15_M_bucket_indexERKNS_16_Hash_node_valueIS4_Lb0EEEm, symObjAddr: 0x82E4, symBinAddr: 0x10000A1F4, symSize: 0x4C }
  - { offsetInCU: 0x20EF5, offset: 0x20EF5, size: 0x8, addend: 0x0, symName: __ZNSt8__detail15_Hashtable_baseIiSt4pairIKi4EdgeENS_10_Select1stESt8equal_toIiESt4hashIiENS_18_Mod_range_hashingENS_20_Default_ranged_hashENS_17_Hashtable_traitsILb0ELb0ELb1EEEE9_S_equalsEmRKNS_21_Hash_node_code_cacheILb0EEE, symObjAddr: 0x8274, symBinAddr: 0x10000A184, symSize: 0x18 }
  - { offsetInCU: 0x20EFD, offset: 0x20EFD, size: 0x8, addend: 0x0, symName: __ZNKSt8__detail15_Hashtable_baseIiSt4pairIKi4EdgeENS_10_Select1stESt8equal_toIiESt4hashIiENS_18_Mod_range_hashingENS_20_Default_ranged_hashENS_17_Hashtable_traitsILb0ELb0ELb1EEEE13_M_key_equalsERS2_RKNS_16_Hash_node_valueIS4_Lb0EEE, symObjAddr: 0x828C, symBinAddr: 0x10000A19C, symSize: 0x58 }
  - { offsetInCU: 0x20FE7, offset: 0x20FE7, size: 0x8, addend: 0x0, symName: __ZSt13__copy_move_aILb0EN9__gnu_cxx17__normal_iteratorIPKiSt6vectorIiSaIiEEEEPiET1_T0_SA_S9_, symObjAddr: 0x8214, symBinAddr: 0x10000A124, symSize: 0x60 }
  - { offsetInCU: 0x20FEF, offset: 0x20FEF, size: 0x8, addend: 0x0, symName: __ZNSt8__detail15_Hashtable_baseIiSt4pairIKi4EdgeENS_10_Select1stESt8equal_toIiESt4hashIiENS_18_Mod_range_hashingENS_20_Default_ranged_hashENS_17_Hashtable_traitsILb0ELb0ELb1EEEE9_S_equalsEmRKNS_21_Hash_node_code_cacheILb0EEE, symObjAddr: 0x8274, symBinAddr: 0x10000A184, symSize: 0x18 }
  - { offsetInCU: 0x20FF4, offset: 0x20FF4, size: 0x8, addend: 0x0, symName: __ZSt4copyIPKiPiET0_T_S4_S3_, symObjAddr: 0x81CC, symBinAddr: 0x10000A0DC, symSize: 0x48 }
  - { offsetInCU: 0x20FFC, offset: 0x20FFC, size: 0x8, addend: 0x0, symName: __ZSt13__copy_move_aILb0EN9__gnu_cxx17__normal_iteratorIPKiSt6vectorIiSaIiEEEEPiET1_T0_SA_S9_, symObjAddr: 0x8214, symBinAddr: 0x10000A124, symSize: 0x60 }
  - { offsetInCU: 0x21086, offset: 0x21086, size: 0x8, addend: 0x0, symName: __ZSt6fill_nIPimiET_S1_T0_RKT1_, symObjAddr: 0x8184, symBinAddr: 0x10000A094, symSize: 0x48 }
  - { offsetInCU: 0x2108E, offset: 0x2108E, size: 0x8, addend: 0x0, symName: __ZSt4copyIPKiPiET0_T_S4_S3_, symObjAddr: 0x81CC, symBinAddr: 0x10000A0DC, symSize: 0x48 }
  - { offsetInCU: 0x2111E, offset: 0x2111E, size: 0x8, addend: 0x0, symName: __ZSt10_ConstructIiJEEvPT_DpOT0_, symObjAddr: 0x8158, symBinAddr: 0x10000A068, symSize: 0x2C }
  - { offsetInCU: 0x21126, offset: 0x21126, size: 0x8, addend: 0x0, symName: __ZSt6fill_nIPimiET_S1_T0_RKT1_, symObjAddr: 0x8184, symBinAddr: 0x10000A094, symSize: 0x48 }
  - { offsetInCU: 0x2116C, offset: 0x2116C, size: 0x8, addend: 0x0, symName: __ZSt11__addressofIiEPT_RS0_, symObjAddr: 0x8144, symBinAddr: 0x10000A054, symSize: 0x14 }
  - { offsetInCU: 0x21174, offset: 0x21174, size: 0x8, addend: 0x0, symName: __ZSt10_ConstructIiJEEvPT_DpOT0_, symObjAddr: 0x8158, symBinAddr: 0x10000A068, symSize: 0x2C }
  - { offsetInCU: 0x2129C, offset: 0x2129C, size: 0x8, addend: 0x0, symName: __ZNSt10_HashtableIiSt4pairIKi4EdgeESaIS3_ENSt8__detail10_Select1stESt8equal_toIiESt4hashIiENS5_18_Mod_range_hashingENS5_20_Default_ranged_hashENS5_20_Prime_rehash_policyENS5_17_Hashtable_traitsILb0ELb0ELb1EEEED1Ev, symObjAddr: 0x8114, symBinAddr: 0x10000A024, symSize: 0x30 }
  - { offsetInCU: 0x212A4, offset: 0x212A4, size: 0x8, addend: 0x0, symName: __ZSt11__addressofIiEPT_RS0_, symObjAddr: 0x8144, symBinAddr: 0x10000A054, symSize: 0x14 }
  - { offsetInCU: 0x21282, offset: 0x21282, size: 0x8, addend: 0x0, symName: __ZSt10_ConstructISt13unordered_mapIi4EdgeSt4hashIiESt8equal_toIiESaISt4pairIKiS1_EEEJEEvPT_DpOT0_, symObjAddr: 0x80C8, symBinAddr: 0x100009FD8, symSize: 0x4C }
  - { offsetInCU: 0x2128A, offset: 0x2128A, size: 0x8, addend: 0x0, symName: __ZNSt10_HashtableIiSt4pairIKi4EdgeESaIS3_ENSt8__detail10_Select1stESt8equal_toIiESt4hashIiENS5_18_Mod_range_hashingENS5_20_Default_ranged_hashENS5_20_Prime_rehash_policyENS5_17_Hashtable_traitsILb0ELb0ELb1EEEED1Ev, symObjAddr: 0x8114, symBinAddr: 0x10000A024, symSize: 0x30 }
  - { offsetInCU: 0x212A6, offset: 0x212A6, size: 0x8, addend: 0x0, symName: __ZNSt13unordered_mapIi4EdgeSt4hashIiESt8equal_toIiESaISt4pairIKiS0_EEEC1Ev, symObjAddr: 0x80A8, symBinAddr: 0x100009FB8, symSize: 0x20 }
  - { offsetInCU: 0x212AE, offset: 0x212AE, size: 0x8, addend: 0x0, symName: __ZSt10_ConstructISt13unordered_mapIi4EdgeSt4hashIiESt8equal_toIiESaISt4pairIKiS1_EEEJEEvPT_DpOT0_, symObjAddr: 0x80C8, symBinAddr: 0x100009FD8, symSize: 0x4C }
  - { offsetInCU: 0x21379, offset: 0x21379, size: 0x8, addend: 0x0, symName: __ZNSt10_HashtableIiSt4pairIKi4EdgeESaIS3_ENSt8__detail10_Select1stESt8equal_toIiESt4hashIiENS5_18_Mod_range_hashingENS5_20_Default_ranged_hashENS5_20_Prime_rehash_policyENS5_17_Hashtable_traitsILb0ELb0ELb1EEEEC1Ev, symObjAddr: 0x8038, symBinAddr: 0x100009F48, symSize: 0x70 }
  - { offsetInCU: 0x21381, offset: 0x21381, size: 0x8, addend: 0x0, symName: __ZNSt13unordered_mapIi4EdgeSt4hashIiESt8equal_toIiESaISt4pairIKiS0_EEEC1Ev, symObjAddr: 0x80A8, symBinAddr: 0x100009FB8, symSize: 0x20 }
  - { offsetInCU: 0x2134F, offset: 0x2134F, size: 0x8, addend: 0x0, symName: __ZNSt8__detail16_Hashtable_allocISaINS_10_Hash_nodeISt4pairIKi4EdgeELb0EEEEED2Ev, symObjAddr: 0x8018, symBinAddr: 0x100009F28, symSize: 0x20 }
  - { offsetInCU: 0x21357, offset: 0x21357, size: 0x8, addend: 0x0, symName: __ZNSt10_HashtableIiSt4pairIKi4EdgeESaIS3_ENSt8__detail10_Select1stESt8equal_toIiESt4hashIiENS5_18_Mod_range_hashingENS5_20_Default_ranged_hashENS5_20_Prime_rehash_policyENS5_17_Hashtable_traitsILb0ELb0ELb1EEEEC1Ev, symObjAddr: 0x8038, symBinAddr: 0x100009F48, symSize: 0x70 }
  - { offsetInCU: 0x21397, offset: 0x21397, size: 0x8, addend: 0x0, symName: __ZNSt8__detail16_Hashtable_allocISaINS_10_Hash_nodeISt4pairIKi4EdgeELb0EEEEEC2Ev, symObjAddr: 0x7FF8, symBinAddr: 0x100009F08, symSize: 0x20 }
  - { offsetInCU: 0x2139F, offset: 0x2139F, size: 0x8, addend: 0x0, symName: __ZNSt8__detail16_Hashtable_allocISaINS_10_Hash_nodeISt4pairIKi4EdgeELb0EEEEED2Ev, symObjAddr: 0x8018, symBinAddr: 0x100009F28, symSize: 0x20 }
  - { offsetInCU: 0x213FF, offset: 0x213FF, size: 0x8, addend: 0x0, symName: __ZNSt8__detail21_Hashtable_ebo_helperILi0ESaINS_10_Hash_nodeISt4pairIKi4EdgeELb0EEEELb1EED2Ev, symObjAddr: 0x7FCC, symBinAddr: 0x100009EDC, symSize: 0x2C }
  - { offsetInCU: 0x21407, offset: 0x21407, size: 0x8, addend: 0x0, symName: __ZNSt8__detail16_Hashtable_allocISaINS_10_Hash_nodeISt4pairIKi4EdgeELb0EEEEEC2Ev, symObjAddr: 0x7FF8, symBinAddr: 0x100009F08, symSize: 0x20 }
  - { offsetInCU: 0x214C5, offset: 0x214C5, size: 0x8, addend: 0x0, symName: __ZNSt8__detail15_Hashtable_baseIiSt4pairIKi4EdgeENS_10_Select1stESt8equal_toIiESt4hashIiENS_18_Mod_range_hashingENS_20_Default_ranged_hashENS_17_Hashtable_traitsILb0ELb0ELb1EEEEC2Ev, symObjAddr: 0x7FA4, symBinAddr: 0x100009EB4, symSize: 0x28 }
  - { offsetInCU: 0x214CD, offset: 0x214CD, size: 0x8, addend: 0x0, symName: __ZNSt8__detail21_Hashtable_ebo_helperILi0ESaINS_10_Hash_nodeISt4pairIKi4EdgeELb0EEEELb1EED2Ev, symObjAddr: 0x7FCC, symBinAddr: 0x100009EDC, symSize: 0x2C }
  - { offsetInCU: 0x214DE, offset: 0x214DE, size: 0x8, addend: 0x0, symName: __ZNSt8__detail15_Hash_code_baseIiSt4pairIKi4EdgeENS_10_Select1stESt4hashIiENS_18_Mod_range_hashingENS_20_Default_ranged_hashELb0EEC2Ev, symObjAddr: 0x7F84, symBinAddr: 0x100009E94, symSize: 0x20 }
  - { offsetInCU: 0x214E6, offset: 0x214E6, size: 0x8, addend: 0x0, symName: __ZNSt8__detail15_Hashtable_baseIiSt4pairIKi4EdgeENS_10_Select1stESt8equal_toIiESt4hashIiENS_18_Mod_range_hashingENS_20_Default_ranged_hashENS_17_Hashtable_traitsILb0ELb0ELb1EEEEC2Ev, symObjAddr: 0x7FA4, symBinAddr: 0x100009EB4, symSize: 0x28 }
  - { offsetInCU: 0x21486, offset: 0x21486, size: 0x8, addend: 0x0, symName: __ZNSt15__new_allocatorISt13unordered_mapIi4EdgeSt4hashIiESt8equal_toIiESaISt4pairIKiS1_EEEE8allocateEmPKv, symObjAddr: 0x7EE4, symBinAddr: 0x100009DF4, symSize: 0xA0 }
  - { offsetInCU: 0x2148E, offset: 0x2148E, size: 0x8, addend: 0x0, symName: __ZNSt8__detail15_Hash_code_baseIiSt4pairIKi4EdgeENS_10_Select1stESt4hashIiENS_18_Mod_range_hashingENS_20_Default_ranged_hashELb0EEC2Ev, symObjAddr: 0x7F84, symBinAddr: 0x100009E94, symSize: 0x20 }
  - { offsetInCU: 0x21561, offset: 0x21561, size: 0x8, addend: 0x0, symName: __ZSt10_ConstructI6VertexJEEvPT_DpOT0_, symObjAddr: 0x7EAC, symBinAddr: 0x100009DBC, symSize: 0x38 }
  - { offsetInCU: 0x21569, offset: 0x21569, size: 0x8, addend: 0x0, symName: __ZNSt15__new_allocatorISt13unordered_mapIi4EdgeSt4hashIiESt8equal_toIiESaISt4pairIKiS1_EEEE8allocateEmPKv, symObjAddr: 0x7EE4, symBinAddr: 0x100009DF4, symSize: 0xA0 }
  - { offsetInCU: 0x215A1, offset: 0x215A1, size: 0x8, addend: 0x0, symName: __ZN6VertexC1Ev, symObjAddr: 0x7E64, symBinAddr: 0x100009D74, symSize: 0x48 }
  - { offsetInCU: 0x215A9, offset: 0x215A9, size: 0x8, addend: 0x0, symName: __ZSt10_ConstructI6VertexJEEvPT_DpOT0_, symObjAddr: 0x7EAC, symBinAddr: 0x100009DBC, symSize: 0x38 }
  - { offsetInCU: 0x215C1, offset: 0x215C1, size: 0x8, addend: 0x0, symName: __ZNSt15__new_allocatorI6VertexE8allocateEmPKv, symObjAddr: 0x7DD4, symBinAddr: 0x100009CE4, symSize: 0x90 }
  - { offsetInCU: 0x215C9, offset: 0x215C9, size: 0x8, addend: 0x0, symName: __ZN6VertexC1Ev, symObjAddr: 0x7E64, symBinAddr: 0x100009D74, symSize: 0x48 }
  - { offsetInCU: 0x21740, offset: 0x21740, size: 0x8, addend: 0x0, symName: __ZNSt11_Tuple_implILm0EJOiEEC2IiEEOT_, symObjAddr: 0x7D98, symBinAddr: 0x100009CA8, symSize: 0x3C }
  - { offsetInCU: 0x21748, offset: 0x21748, size: 0x8, addend: 0x0, symName: __ZNSt15__new_allocatorI6VertexE8allocateEmPKv, symObjAddr: 0x7DD4, symBinAddr: 0x100009CE4, symSize: 0x90 }
  - { offsetInCU: 0x217B5, offset: 0x217B5, size: 0x8, addend: 0x0, symName: __ZSt14__copy_move_a2ILb0EPiS0_ET1_T0_S2_S1_, symObjAddr: 0x7D6C, symBinAddr: 0x100009C7C, symSize: 0x2C }
  - { offsetInCU: 0x217BD, offset: 0x217BD, size: 0x8, addend: 0x0, symName: __ZNSt11_Tuple_implILm0EJOiEEC2IiEEOT_, symObjAddr: 0x7D98, symBinAddr: 0x100009CA8, symSize: 0x3C }
  - { offsetInCU: 0x217F1, offset: 0x217F1, size: 0x8, addend: 0x0, symName: __ZNK9__gnu_cxx17__normal_iteratorIPiSt6vectorIiSaIiEEEplEl, symObjAddr: 0x7D2C, symBinAddr: 0x100009C3C, symSize: 0x40 }
  - { offsetInCU: 0x217F9, offset: 0x217F9, size: 0x8, addend: 0x0, symName: __ZSt14__copy_move_a2ILb0EPiS0_ET1_T0_S2_S1_, symObjAddr: 0x7D6C, symBinAddr: 0x100009C7C, symSize: 0x2C }
  - { offsetInCU: 0x2188D, offset: 0x2188D, size: 0x8, addend: 0x0, symName: __ZSt14__copy_move_a2ILb0EPKiPiET1_T0_S4_S3_, symObjAddr: 0x7D00, symBinAddr: 0x100009C10, symSize: 0x2C }
  - { offsetInCU: 0x21895, offset: 0x21895, size: 0x8, addend: 0x0, symName: __ZNK9__gnu_cxx17__normal_iteratorIPiSt6vectorIiSaIiEEEplEl, symObjAddr: 0x7D2C, symBinAddr: 0x100009C3C, symSize: 0x40 }
  - { offsetInCU: 0x2195A, offset: 0x2195A, size: 0x8, addend: 0x0, symName: __ZNSt19__ptr_traits_ptr_toIPPNSt8__detail15_Hash_node_baseES2_Lb0EE10pointer_toERS2_, symObjAddr: 0x7CE4, symBinAddr: 0x100009BF4, symSize: 0x1C }
  - { offsetInCU: 0x21962, offset: 0x21962, size: 0x8, addend: 0x0, symName: __ZSt14__copy_move_a2ILb0EPKiPiET1_T0_S4_S3_, symObjAddr: 0x7D00, symBinAddr: 0x100009C10, symSize: 0x2C }
  - { offsetInCU: 0x2198B, offset: 0x2198B, size: 0x8, addend: 0x0, symName: __ZNSt8__detail16_Hashtable_allocISaINS_10_Hash_nodeISt4pairIK6Vertex4EdgeELb1EEEEE22_M_deallocate_node_ptrEPS7_, symObjAddr: 0x7C8C, symBinAddr: 0x100009B9C, symSize: 0x58 }
  - { offsetInCU: 0x21993, offset: 0x21993, size: 0x8, addend: 0x0, symName: __ZNSt19__ptr_traits_ptr_toIPPNSt8__detail15_Hash_node_baseES2_Lb0EE10pointer_toERS2_, symObjAddr: 0x7CE4, symBinAddr: 0x100009BF4, symSize: 0x1C }
  - { offsetInCU: 0x21A5C, offset: 0x21A5C, size: 0x8, addend: 0x0, symName: __ZNSt8__detail21_Hash_node_value_baseISt4pairIK6Vertex4EdgeEE9_M_valptrEv, symObjAddr: 0x7C70, symBinAddr: 0x100009B80, symSize: 0x1C }
  - { offsetInCU: 0x21A64, offset: 0x21A64, size: 0x8, addend: 0x0, symName: __ZNSt8__detail16_Hashtable_allocISaINS_10_Hash_nodeISt4pairIK6Vertex4EdgeELb1EEEEE22_M_deallocate_node_ptrEPS7_, symObjAddr: 0x7C8C, symBinAddr: 0x100009B9C, symSize: 0x58 }
  - { offsetInCU: 0x21A8B, offset: 0x21A8B, size: 0x8, addend: 0x0, symName: __ZNSt8__detail16_Hashtable_allocISaINS_10_Hash_nodeISt4pairIK6Vertex4EdgeELb1EEEEE17_M_node_allocatorEv, symObjAddr: 0x7C54, symBinAddr: 0x100009B64, symSize: 0x1C }
  - { offsetInCU: 0x21A93, offset: 0x21A93, size: 0x8, addend: 0x0, symName: __ZNSt8__detail21_Hash_node_value_baseISt4pairIK6Vertex4EdgeEE9_M_valptrEv, symObjAddr: 0x7C70, symBinAddr: 0x100009B80, symSize: 0x1C }
  - { offsetInCU: 0x21ABA, offset: 0x21ABA, size: 0x8, addend: 0x0, symName: __ZNSt5dequeIiSaIiEE17_M_reallocate_mapEmb, symObjAddr: 0x7A14, symBinAddr: 0x100009924, symSize: 0x240 }
  - { offsetInCU: 0x21AC2, offset: 0x21AC2, size: 0x8, addend: 0x0, symName: __ZNSt8__detail16_Hashtable_allocISaINS_10_Hash_nodeISt4pairIK6Vertex4EdgeELb1EEEEE17_M_node_allocatorEv, symObjAddr: 0x7C54, symBinAddr: 0x100009B64, symSize: 0x1C }
  - { offsetInCU: 0x21B88, offset: 0x21B88, size: 0x8, addend: 0x0, symName: __ZNSt5dequeIiSaIiEE11_S_max_sizeERKS0_, symObjAddr: 0x79C0, symBinAddr: 0x1000098D0, symSize: 0x54 }
  - { offsetInCU: 0x21B90, offset: 0x21B90, size: 0x8, addend: 0x0, symName: __ZNSt5dequeIiSaIiEE17_M_reallocate_mapEmb, symObjAddr: 0x7A14, symBinAddr: 0x100009924, symSize: 0x240 }
  - { offsetInCU: 0x21C83, offset: 0x21C83, size: 0x8, addend: 0x0, symName: __ZStmiRKSt15_Deque_iteratorIiRiPiES4_, symObjAddr: 0x792C, symBinAddr: 0x10000983C, symSize: 0x94 }
  - { offsetInCU: 0x21C8B, offset: 0x21C8B, size: 0x8, addend: 0x0, symName: __ZNSt5dequeIiSaIiEE11_S_max_sizeERKS0_, symObjAddr: 0x79C0, symBinAddr: 0x1000098D0, symSize: 0x54 }
  - { offsetInCU: 0x21D06, offset: 0x21D06, size: 0x8, addend: 0x0, symName: __ZNSt15__new_allocatorImE8allocateEmPKv, symObjAddr: 0x78B0, symBinAddr: 0x1000097C0, symSize: 0x7C }
  - { offsetInCU: 0x21D0E, offset: 0x21D0E, size: 0x8, addend: 0x0, symName: __ZStmiRKSt15_Deque_iteratorIiRiPiES4_, symObjAddr: 0x792C, symBinAddr: 0x10000983C, symSize: 0x94 }
  - { offsetInCU: 0x21D8F, offset: 0x21D8F, size: 0x8, addend: 0x0, symName: __ZNSt15__new_allocatorImE10deallocateEPmm, symObjAddr: 0x7880, symBinAddr: 0x100009790, symSize: 0x30 }
  - { offsetInCU: 0x21D97, offset: 0x21D97, size: 0x8, addend: 0x0, symName: __ZNSt15__new_allocatorImE8allocateEmPKv, symObjAddr: 0x78B0, symBinAddr: 0x1000097C0, symSize: 0x7C }
  - { offsetInCU: 0x21E06, offset: 0x21E06, size: 0x8, addend: 0x0, symName: __ZNSt15__new_allocatorIPiE10deallocateEPS0_m, symObjAddr: 0x7850, symBinAddr: 0x100009760, symSize: 0x30 }
  - { offsetInCU: 0x21E0E, offset: 0x21E0E, size: 0x8, addend: 0x0, symName: __ZNSt15__new_allocatorImE10deallocateEPmm, symObjAddr: 0x7880, symBinAddr: 0x100009790, symSize: 0x30 }
  - { offsetInCU: 0x21EA1, offset: 0x21EA1, size: 0x8, addend: 0x0, symName: __ZNSt15__new_allocatorIPiED2Ev, symObjAddr: 0x783C, symBinAddr: 0x10000974C, symSize: 0x14 }
  - { offsetInCU: 0x21EA9, offset: 0x21EA9, size: 0x8, addend: 0x0, symName: __ZNSt15__new_allocatorIPiE10deallocateEPS0_m, symObjAddr: 0x7850, symBinAddr: 0x100009760, symSize: 0x30 }
  - { offsetInCU: 0x21EE0, offset: 0x21EE0, size: 0x8, addend: 0x0, symName: __ZNKSt11_Deque_baseIiSaIiEE19_M_get_Tp_allocatorEv, symObjAddr: 0x7828, symBinAddr: 0x100009738, symSize: 0x14 }
  - { offsetInCU: 0x21EE8, offset: 0x21EE8, size: 0x8, addend: 0x0, symName: __ZNSt15__new_allocatorIPiED2Ev, symObjAddr: 0x783C, symBinAddr: 0x10000974C, symSize: 0x14 }
  - { offsetInCU: 0x21F10, offset: 0x21F10, size: 0x8, addend: 0x0, symName: __ZNSt15_Deque_iteratorIiRiPiE14_S_buffer_sizeEv, symObjAddr: 0x7810, symBinAddr: 0x100009720, symSize: 0x18 }
  - { offsetInCU: 0x21F18, offset: 0x21F18, size: 0x8, addend: 0x0, symName: __ZNKSt11_Deque_baseIiSaIiEE19_M_get_Tp_allocatorEv, symObjAddr: 0x7828, symBinAddr: 0x100009738, symSize: 0x14 }
  - { offsetInCU: 0x21F97, offset: 0x21F97, size: 0x8, addend: 0x0, symName: __ZNSt15_Deque_iteratorIiRiPiEC1Ev, symObjAddr: 0x77DC, symBinAddr: 0x1000096EC, symSize: 0x34 }
  - { offsetInCU: 0x21F9F, offset: 0x21F9F, size: 0x8, addend: 0x0, symName: __ZNSt15_Deque_iteratorIiRiPiE14_S_buffer_sizeEv, symObjAddr: 0x7810, symBinAddr: 0x100009720, symSize: 0x18 }
  - { offsetInCU: 0x21FA4, offset: 0x21FA4, size: 0x8, addend: 0x0, symName: __ZNSt10_HashtableIiSt4pairIKi4EdgeESaIS3_ENSt8__detail10_Select1stESt8equal_toIiESt4hashIiENS5_18_Mod_range_hashingENS5_20_Default_ranged_hashENS5_20_Prime_rehash_policyENS5_17_Hashtable_traitsILb0ELb0ELb1EEEE13_M_rehash_auxEmSt17integral_constantIbLb1EE, symObjAddr: 0x7670, symBinAddr: 0x100009580, symSize: 0x16C }
  - { offsetInCU: 0x21FAC, offset: 0x21FAC, size: 0x8, addend: 0x0, symName: __ZNSt15_Deque_iteratorIiRiPiEC1Ev, symObjAddr: 0x77DC, symBinAddr: 0x1000096EC, symSize: 0x34 }
  - { offsetInCU: 0x2206B, offset: 0x2206B, size: 0x8, addend: 0x0, symName: __ZNSt8__detail16_Hashtable_allocISaINS_10_Hash_nodeISt4pairIKi4EdgeELb0EEEEE22_M_deallocate_node_ptrEPS6_, symObjAddr: 0x7618, symBinAddr: 0x100009528, symSize: 0x58 }
  - { offsetInCU: 0x22073, offset: 0x22073, size: 0x8, addend: 0x0, symName: __ZNSt10_HashtableIiSt4pairIKi4EdgeESaIS3_ENSt8__detail10_Select1stESt8equal_toIiESt4hashIiENS5_18_Mod_range_hashingENS5_20_Default_ranged_hashENS5_20_Prime_rehash_policyENS5_17_Hashtable_traitsILb0ELb0ELb1EEEE13_M_rehash_auxEmSt17integral_constantIbLb1EE, symObjAddr: 0x7670, symBinAddr: 0x100009580, symSize: 0x16C }
  - { offsetInCU: 0x22296, offset: 0x22296, size: 0x8, addend: 0x0, symName: __ZSt12__to_addressINSt8__detail10_Hash_nodeISt4pairIKi4EdgeELb0EEEEPT_S8_, symObjAddr: 0x7604, symBinAddr: 0x100009514, symSize: 0x14 }
  - { offsetInCU: 0x2229E, offset: 0x2229E, size: 0x8, addend: 0x0, symName: __ZNSt8__detail16_Hashtable_allocISaINS_10_Hash_nodeISt4pairIKi4EdgeELb0EEEEE22_M_deallocate_node_ptrEPS6_, symObjAddr: 0x7618, symBinAddr: 0x100009528, symSize: 0x58 }
  - { offsetInCU: 0x22276, offset: 0x22276, size: 0x8, addend: 0x0, symName: __ZNSt8__detail16_Hashtable_allocISaINS_10_Hash_nodeISt4pairIKi4EdgeELb0EEEEE17_M_node_allocatorEv, symObjAddr: 0x75E8, symBinAddr: 0x1000094F8, symSize: 0x1C }
  - { offsetInCU: 0x2227E, offset: 0x2227E, size: 0x8, addend: 0x0, symName: __ZSt12__to_addressINSt8__detail10_Hash_nodeISt4pairIKi4EdgeELb0EEEEPT_S8_, symObjAddr: 0x7604, symBinAddr: 0x100009514, symSize: 0x14 }
  - { offsetInCU: 0x222F4, offset: 0x222F4, size: 0x8, addend: 0x0, symName: __ZNSt10_Head_baseILm0ERKiLb0EEC2ES1_, symObjAddr: 0x75C4, symBinAddr: 0x1000094D4, symSize: 0x24 }
  - { offsetInCU: 0x222FC, offset: 0x222FC, size: 0x8, addend: 0x0, symName: __ZNSt8__detail16_Hashtable_allocISaINS_10_Hash_nodeISt4pairIKi4EdgeELb0EEEEE17_M_node_allocatorEv, symObjAddr: 0x75E8, symBinAddr: 0x1000094F8, symSize: 0x1C }
  - { offsetInCU: 0x2230A, offset: 0x2230A, size: 0x8, addend: 0x0, symName: __ZNKSt10_HashtableIiSt4pairIKi4EdgeESaIS3_ENSt8__detail10_Select1stESt8equal_toIiESt4hashIiENS5_18_Mod_range_hashingENS5_20_Default_ranged_hashENS5_20_Prime_rehash_policyENS5_17_Hashtable_traitsILb0ELb0ELb1EEEE15_M_bucket_indexERKNS5_16_Hash_node_valueIS3_Lb0EEE, symObjAddr: 0x7594, symBinAddr: 0x1000094A4, symSize: 0x30 }
  - { offsetInCU: 0x22312, offset: 0x22312, size: 0x8, addend: 0x0, symName: __ZNSt10_Head_baseILm0ERKiLb0EEC2ES1_, symObjAddr: 0x75C4, symBinAddr: 0x1000094D4, symSize: 0x24 }
  - { offsetInCU: 0x2234D, offset: 0x2234D, size: 0x8, addend: 0x0, symName: __ZNKSt8__detail15_Hashtable_baseIiSt4pairIKi4EdgeENS_10_Select1stESt8equal_toIiESt4hashIiENS_18_Mod_range_hashingENS_20_Default_ranged_hashENS_17_Hashtable_traitsILb0ELb0ELb1EEEE9_M_equalsERS2_mRKNS_16_Hash_node_valueIS4_Lb0EEE, symObjAddr: 0x752C, symBinAddr: 0x10000943C, symSize: 0x68 }
  - { offsetInCU: 0x22355, offset: 0x22355, size: 0x8, addend: 0x0, symName: __ZNKSt10_HashtableIiSt4pairIKi4EdgeESaIS3_ENSt8__detail10_Select1stESt8equal_toIiESt4hashIiENS5_18_Mod_range_hashingENS5_20_Default_ranged_hashENS5_20_Prime_rehash_policyENS5_17_Hashtable_traitsILb0ELb0ELb1EEEE15_M_bucket_indexERKNS5_16_Hash_node_valueIS3_Lb0EEE, symObjAddr: 0x7594, symBinAddr: 0x1000094A4, symSize: 0x30 }
  - { offsetInCU: 0x223B8, offset: 0x223B8, size: 0x8, addend: 0x0, symName: __ZNKSt8__detail21_Hashtable_ebo_helperILi1ESt4hashIiELb1EE7_M_cgetEv, symObjAddr: 0x7518, symBinAddr: 0x100009428, symSize: 0x14 }
  - { offsetInCU: 0x223C0, offset: 0x223C0, size: 0x8, addend: 0x0, symName: __ZNKSt8__detail15_Hashtable_baseIiSt4pairIKi4EdgeENS_10_Select1stESt8equal_toIiESt4hashIiENS_18_Mod_range_hashingENS_20_Default_ranged_hashENS_17_Hashtable_traitsILb0ELb0ELb1EEEE9_M_equalsERS2_mRKNS_16_Hash_node_valueIS4_Lb0EEE, symObjAddr: 0x752C, symBinAddr: 0x10000943C, symSize: 0x68 }
  - { offsetInCU: 0x22483, offset: 0x22483, size: 0x8, addend: 0x0, symName: __ZSt14__relocate_a_1IiiENSt9enable_ifIXsrSt24__is_bitwise_relocatableIT_vE5valueEPS2_E4typeES4_S4_S4_RSaIT0_E, symObjAddr: 0x74B0, symBinAddr: 0x1000093C0, symSize: 0x68 }
  - { offsetInCU: 0x2248B, offset: 0x2248B, size: 0x8, addend: 0x0, symName: __ZNKSt8__detail21_Hashtable_ebo_helperILi1ESt4hashIiELb1EE7_M_cgetEv, symObjAddr: 0x7518, symBinAddr: 0x100009428, symSize: 0x14 }
  - { offsetInCU: 0x2253B, offset: 0x2253B, size: 0x8, addend: 0x0, symName: __ZSt4copyIN9__gnu_cxx17__normal_iteratorIPKiSt6vectorIiSaIiEEEEPiET0_T_SA_S9_, symObjAddr: 0x7468, symBinAddr: 0x100009378, symSize: 0x48 }
  - { offsetInCU: 0x22543, offset: 0x22543, size: 0x8, addend: 0x0, symName: __ZSt14__relocate_a_1IiiENSt9enable_ifIXsrSt24__is_bitwise_relocatableIT_vE5valueEPS2_E4typeES4_S4_S4_RSaIT0_E, symObjAddr: 0x74B0, symBinAddr: 0x1000093C0, symSize: 0x68 }
  - { offsetInCU: 0x22521, offset: 0x22521, size: 0x8, addend: 0x0, symName: __ZNSt20__uninitialized_copyILb1EE13__uninit_copyIPKiPiEET0_T_S6_S5_, symObjAddr: 0x743C, symBinAddr: 0x10000934C, symSize: 0x2C }
  - { offsetInCU: 0x22529, offset: 0x22529, size: 0x8, addend: 0x0, symName: __ZSt4copyIN9__gnu_cxx17__normal_iteratorIPKiSt6vectorIiSaIiEEEEPiET0_T_SA_S9_, symObjAddr: 0x7468, symBinAddr: 0x100009378, symSize: 0x48 }
  - { offsetInCU: 0x22592, offset: 0x22592, size: 0x8, addend: 0x0, symName: __ZNSt15__new_allocatorIiE8allocateEmPKv, symObjAddr: 0x73C0, symBinAddr: 0x1000092D0, symSize: 0x7C }
  - { offsetInCU: 0x2259A, offset: 0x2259A, size: 0x8, addend: 0x0, symName: __ZNSt20__uninitialized_copyILb1EE13__uninit_copyIPKiPiEET0_T_S6_S5_, symObjAddr: 0x743C, symBinAddr: 0x10000934C, symSize: 0x2C }
  - { offsetInCU: 0x2261B, offset: 0x2261B, size: 0x8, addend: 0x0, symName: __ZNSt22__uninitialized_fill_nILb1EE15__uninit_fill_nIPimiEET_S3_T0_RKT1_, symObjAddr: 0x7394, symBinAddr: 0x1000092A4, symSize: 0x2C }
  - { offsetInCU: 0x22623, offset: 0x22623, size: 0x8, addend: 0x0, symName: __ZNSt15__new_allocatorIiE8allocateEmPKv, symObjAddr: 0x73C0, symBinAddr: 0x1000092D0, symSize: 0x7C }
  - { offsetInCU: 0x2269C, offset: 0x2269C, size: 0x8, addend: 0x0, symName: __ZNSt27__uninitialized_default_n_1ILb1EE18__uninit_default_nIPimEET_S3_T0_, symObjAddr: 0x7330, symBinAddr: 0x100009240, symSize: 0x64 }
  - { offsetInCU: 0x226A4, offset: 0x226A4, size: 0x8, addend: 0x0, symName: __ZNSt22__uninitialized_fill_nILb1EE15__uninit_fill_nIPimiEET_S3_T0_RKT1_, symObjAddr: 0x7394, symBinAddr: 0x1000092A4, symSize: 0x2C }
  - { offsetInCU: 0x2274A, offset: 0x2274A, size: 0x8, addend: 0x0, symName: __ZN9__gnu_cxx16__aligned_bufferISt4pairIKi4EdgeEE7_M_addrEv, symObjAddr: 0x731C, symBinAddr: 0x10000922C, symSize: 0x14 }
  - { offsetInCU: 0x22752, offset: 0x22752, size: 0x8, addend: 0x0, symName: __ZNSt27__uninitialized_default_n_1ILb1EE18__uninit_default_nIPimEET_S3_T0_, symObjAddr: 0x7330, symBinAddr: 0x100009240, symSize: 0x64 }
  - { offsetInCU: 0x227FD, offset: 0x227FD, size: 0x8, addend: 0x0, symName: __ZSt8_DestroyISt13unordered_mapIi4EdgeSt4hashIiESt8equal_toIiESaISt4pairIKiS1_EEEEvPT_, symObjAddr: 0x72FC, symBinAddr: 0x10000920C, symSize: 0x20 }
  - { offsetInCU: 0x22805, offset: 0x22805, size: 0x8, addend: 0x0, symName: __ZN9__gnu_cxx16__aligned_bufferISt4pairIKi4EdgeEE7_M_addrEv, symObjAddr: 0x731C, symBinAddr: 0x10000922C, symSize: 0x14 }
  - { offsetInCU: 0x22836, offset: 0x22836, size: 0x8, addend: 0x0, symName: __ZNSt13unordered_mapIi4EdgeSt4hashIiESt8equal_toIiESaISt4pairIKiS0_EEED1Ev, symObjAddr: 0x72DC, symBinAddr: 0x1000091EC, symSize: 0x20 }
  - { offsetInCU: 0x2283E, offset: 0x2283E, size: 0x8, addend: 0x0, symName: __ZSt8_DestroyISt13unordered_mapIi4EdgeSt4hashIiESt8equal_toIiESaISt4pairIKiS1_EEEEvPT_, symObjAddr: 0x72FC, symBinAddr: 0x10000920C, symSize: 0x20 }
  - { offsetInCU: 0x228A8, offset: 0x228A8, size: 0x8, addend: 0x0, symName: __ZSt11__addressofISt13unordered_mapIi4EdgeSt4hashIiESt8equal_toIiESaISt4pairIKiS1_EEEEPT_RSB_, symObjAddr: 0x72C8, symBinAddr: 0x1000091D8, symSize: 0x14 }
  - { offsetInCU: 0x228B0, offset: 0x228B0, size: 0x8, addend: 0x0, symName: __ZNSt13unordered_mapIi4EdgeSt4hashIiESt8equal_toIiESaISt4pairIKiS0_EEED1Ev, symObjAddr: 0x72DC, symBinAddr: 0x1000091EC, symSize: 0x20 }
  - { offsetInCU: 0x22865, offset: 0x22865, size: 0x8, addend: 0x0, symName: __ZNSt27__uninitialized_default_n_1ILb0EE18__uninit_default_nIPSt13unordered_mapIi4EdgeSt4hashIiESt8equal_toIiESaISt4pairIKiS3_EEEmEET_SE_T0_, symObjAddr: 0x7270, symBinAddr: 0x100009180, symSize: 0x58 }
  - { offsetInCU: 0x2286D, offset: 0x2286D, size: 0x8, addend: 0x0, symName: __ZSt11__addressofISt13unordered_mapIi4EdgeSt4hashIiESt8equal_toIiESaISt4pairIKiS1_EEEEPT_RSB_, symObjAddr: 0x72C8, symBinAddr: 0x1000091D8, symSize: 0x14 }
  - { offsetInCU: 0x228D9, offset: 0x228D9, size: 0x8, addend: 0x0, symName: __ZNSt15__new_allocatorISt13unordered_mapIi4EdgeSt4hashIiESt8equal_toIiESaISt4pairIKiS1_EEEE10deallocateEPSA_m, symObjAddr: 0x7234, symBinAddr: 0x100009144, symSize: 0x3C }
  - { offsetInCU: 0x228E1, offset: 0x228E1, size: 0x8, addend: 0x0, symName: __ZNSt27__uninitialized_default_n_1ILb0EE18__uninit_default_nIPSt13unordered_mapIi4EdgeSt4hashIiESt8equal_toIiESaISt4pairIKiS3_EEEmEET_SE_T0_, symObjAddr: 0x7270, symBinAddr: 0x100009180, symSize: 0x58 }
  - { offsetInCU: 0x229A2, offset: 0x229A2, size: 0x8, addend: 0x0, symName: __ZSt8_DestroyI6VertexEvPT_, symObjAddr: 0x7214, symBinAddr: 0x100009124, symSize: 0x20 }
  - { offsetInCU: 0x229AA, offset: 0x229AA, size: 0x8, addend: 0x0, symName: __ZNSt15__new_allocatorISt13unordered_mapIi4EdgeSt4hashIiESt8equal_toIiESaISt4pairIKiS1_EEEE10deallocateEPSA_m, symObjAddr: 0x7234, symBinAddr: 0x100009144, symSize: 0x3C }
  - { offsetInCU: 0x229F3, offset: 0x229F3, size: 0x8, addend: 0x0, symName: __ZSt11__addressofI6VertexEPT_RS1_, symObjAddr: 0x7200, symBinAddr: 0x100009110, symSize: 0x14 }
  - { offsetInCU: 0x229FB, offset: 0x229FB, size: 0x8, addend: 0x0, symName: __ZSt8_DestroyI6VertexEvPT_, symObjAddr: 0x7214, symBinAddr: 0x100009124, symSize: 0x20 }
  - { offsetInCU: 0x22A04, offset: 0x22A04, size: 0x8, addend: 0x0, symName: __ZNSt27__uninitialized_default_n_1ILb0EE18__uninit_default_nIP6VertexmEET_S4_T0_, symObjAddr: 0x71A8, symBinAddr: 0x1000090B8, symSize: 0x58 }
  - { offsetInCU: 0x22A0C, offset: 0x22A0C, size: 0x8, addend: 0x0, symName: __ZSt11__addressofI6VertexEPT_RS1_, symObjAddr: 0x7200, symBinAddr: 0x100009110, symSize: 0x14 }
  - { offsetInCU: 0x22A78, offset: 0x22A78, size: 0x8, addend: 0x0, symName: __ZNSt15__new_allocatorI6VertexE10deallocateEPS0_m, symObjAddr: 0x716C, symBinAddr: 0x10000907C, symSize: 0x3C }
  - { offsetInCU: 0x22A80, offset: 0x22A80, size: 0x8, addend: 0x0, symName: __ZNSt27__uninitialized_default_n_1ILb0EE18__uninit_default_nIP6VertexmEET_S4_T0_, symObjAddr: 0x71A8, symBinAddr: 0x1000090B8, symSize: 0x58 }
  - { offsetInCU: 0x22B15, offset: 0x22B15, size: 0x8, addend: 0x0, symName: __ZNSt8__detail16_Hashtable_allocISaINS_10_Hash_nodeISt4pairIKi4EdgeELb0EEEEE16_M_allocate_nodeIJRKSt21piecewise_construct_tSt5tupleIJOiEESD_IJEEEEEPS6_DpOT_, symObjAddr: 0x6F88, symBinAddr: 0x100008E98, symSize: 0x1E4 }
  - { offsetInCU: 0x22B1D, offset: 0x22B1D, size: 0x8, addend: 0x0, symName: __ZNSt15__new_allocatorI6VertexE10deallocateEPS0_m, symObjAddr: 0x716C, symBinAddr: 0x10000907C, symSize: 0x3C }
  - { offsetInCU: 0x22D45, offset: 0x22D45, size: 0x8, addend: 0x0, symName: __ZSt7forwardISt5tupleIJOiEEEOT_RNSt16remove_referenceIS3_E4typeE, symObjAddr: 0x6F74, symBinAddr: 0x100008E84, symSize: 0x14 }
  - { offsetInCU: 0x22D4D, offset: 0x22D4D, size: 0x8, addend: 0x0, symName: __ZNSt8__detail16_Hashtable_allocISaINS_10_Hash_nodeISt4pairIKi4EdgeELb0EEEEE16_M_allocate_nodeIJRKSt21piecewise_construct_tSt5tupleIJOiEESD_IJEEEEEPS6_DpOT_, symObjAddr: 0x6F88, symBinAddr: 0x100008E98, symSize: 0x1E4 }
  - { offsetInCU: 0x22DA7, offset: 0x22DA7, size: 0x8, addend: 0x0, symName: __ZNSt5tupleIJOiEEC1IJiELb1ELb1EEEDpOT_, symObjAddr: 0x6F38, symBinAddr: 0x100008E48, symSize: 0x3C }
  - { offsetInCU: 0x22DAF, offset: 0x22DAF, size: 0x8, addend: 0x0, symName: __ZSt7forwardISt5tupleIJOiEEEOT_RNSt16remove_referenceIS3_E4typeE, symObjAddr: 0x6F74, symBinAddr: 0x100008E84, symSize: 0x14 }
  - { offsetInCU: 0x22DE0, offset: 0x22DE0, size: 0x8, addend: 0x0, symName: __ZNSt20__uninitialized_copyILb1EE13__uninit_copyIPiS2_EET0_T_S4_S3_, symObjAddr: 0x6F0C, symBinAddr: 0x100008E1C, symSize: 0x2C }
  - { offsetInCU: 0x22DE8, offset: 0x22DE8, size: 0x8, addend: 0x0, symName: __ZNSt5tupleIJOiEEC1IJiELb1ELb1EEEDpOT_, symObjAddr: 0x6F38, symBinAddr: 0x100008E48, symSize: 0x3C }
  - { offsetInCU: 0x22E8A, offset: 0x22E8A, size: 0x8, addend: 0x0, symName: __ZSt12__niter_wrapIPiET_RKS1_S1_, symObjAddr: 0x6EF4, symBinAddr: 0x100008E04, symSize: 0x18 }
  - { offsetInCU: 0x22E92, offset: 0x22E92, size: 0x8, addend: 0x0, symName: __ZNSt20__uninitialized_copyILb1EE13__uninit_copyIPiS2_EET0_T_S4_S3_, symObjAddr: 0x6F0C, symBinAddr: 0x100008E1C, symSize: 0x2C }
  - { offsetInCU: 0x22EFD, offset: 0x22EFD, size: 0x8, addend: 0x0, symName: __ZSt14__copy_move_a1ILb0EPiS0_ET1_T0_S2_S1_, symObjAddr: 0x6EC8, symBinAddr: 0x100008DD8, symSize: 0x2C }
  - { offsetInCU: 0x22F05, offset: 0x22F05, size: 0x8, addend: 0x0, symName: __ZSt12__niter_wrapIPiET_RKS1_S1_, symObjAddr: 0x6EF4, symBinAddr: 0x100008E04, symSize: 0x18 }
  - { offsetInCU: 0x22F6D, offset: 0x22F6D, size: 0x8, addend: 0x0, symName: __ZSt12__niter_baseIPiET_S1_, symObjAddr: 0x6EB4, symBinAddr: 0x100008DC4, symSize: 0x14 }
  - { offsetInCU: 0x22F75, offset: 0x22F75, size: 0x8, addend: 0x0, symName: __ZSt14__copy_move_a1ILb0EPiS0_ET1_T0_S2_S1_, symObjAddr: 0x6EC8, symBinAddr: 0x100008DD8, symSize: 0x2C }
  - { offsetInCU: 0x22F85, offset: 0x22F85, size: 0x8, addend: 0x0, symName: __ZNSt12_Destroy_auxILb1EE9__destroyIN9__gnu_cxx17__normal_iteratorIPiSt6vectorIiSaIiEEEEEEvT_S9_, symObjAddr: 0x6E9C, symBinAddr: 0x100008DAC, symSize: 0x18 }
  - { offsetInCU: 0x22F8D, offset: 0x22F8D, size: 0x8, addend: 0x0, symName: __ZSt12__niter_baseIPiET_S1_, symObjAddr: 0x6EB4, symBinAddr: 0x100008DC4, symSize: 0x14 }
  - { offsetInCU: 0x2306D, offset: 0x2306D, size: 0x8, addend: 0x0, symName: __ZSt12__niter_wrapIN9__gnu_cxx17__normal_iteratorIPiSt6vectorIiSaIiEEEES2_ET_S7_T0_, symObjAddr: 0x6E60, symBinAddr: 0x100008D70, symSize: 0x3C }
  - { offsetInCU: 0x23075, offset: 0x23075, size: 0x8, addend: 0x0, symName: __ZNSt12_Destroy_auxILb1EE9__destroyIN9__gnu_cxx17__normal_iteratorIPiSt6vectorIiSaIiEEEEEEvT_S9_, symObjAddr: 0x6E9C, symBinAddr: 0x100008DAC, symSize: 0x18 }
  - { offsetInCU: 0x23090, offset: 0x23090, size: 0x8, addend: 0x0, symName: __ZSt14__copy_move_a1ILb0EPKiPiET1_T0_S4_S3_, symObjAddr: 0x6E34, symBinAddr: 0x100008D44, symSize: 0x2C }
  - { offsetInCU: 0x23098, offset: 0x23098, size: 0x8, addend: 0x0, symName: __ZSt12__niter_wrapIN9__gnu_cxx17__normal_iteratorIPiSt6vectorIiSaIiEEEES2_ET_S7_T0_, symObjAddr: 0x6E60, symBinAddr: 0x100008D70, symSize: 0x3C }
  - { offsetInCU: 0x23142, offset: 0x23142, size: 0x8, addend: 0x0, symName: __ZSt12__niter_baseIPiSt6vectorIiSaIiEEET_N9__gnu_cxx17__normal_iteratorIS4_T0_EE, symObjAddr: 0x6E14, symBinAddr: 0x100008D24, symSize: 0x20 }
  - { offsetInCU: 0x2314A, offset: 0x2314A, size: 0x8, addend: 0x0, symName: __ZSt14__copy_move_a1ILb0EPKiPiET1_T0_S4_S3_, symObjAddr: 0x6E34, symBinAddr: 0x100008D44, symSize: 0x2C }
  - { offsetInCU: 0x231A2, offset: 0x231A2, size: 0x8, addend: 0x0, symName: __ZSt12__niter_baseIPKiSt6vectorIiSaIiEEET_N9__gnu_cxx17__normal_iteratorIS5_T0_EE, symObjAddr: 0x6DF4, symBinAddr: 0x100008D04, symSize: 0x20 }
  - { offsetInCU: 0x231AA, offset: 0x231AA, size: 0x8, addend: 0x0, symName: __ZSt12__niter_baseIPiSt6vectorIiSaIiEEET_N9__gnu_cxx17__normal_iteratorIS4_T0_EE, symObjAddr: 0x6E14, symBinAddr: 0x100008D24, symSize: 0x20 }
  - { offsetInCU: 0x23178, offset: 0x23178, size: 0x8, addend: 0x0, symName: __ZNSt8__detail16_Hashtable_allocISaINS_10_Hash_nodeISt4pairIK6Vertex4EdgeELb1EEEEE21_M_deallocate_bucketsEPPNS_15_Hash_node_baseEm, symObjAddr: 0x6D7C, symBinAddr: 0x100008C8C, symSize: 0x78 }
  - { offsetInCU: 0x23180, offset: 0x23180, size: 0x8, addend: 0x0, symName: __ZSt12__niter_baseIPKiSt6vectorIiSaIiEEET_N9__gnu_cxx17__normal_iteratorIS5_T0_EE, symObjAddr: 0x6DF4, symBinAddr: 0x100008D04, symSize: 0x20 }
  - { offsetInCU: 0x232AB, offset: 0x232AB, size: 0x8, addend: 0x0, symName: __ZNKSt10_HashtableI6VertexSt4pairIKS0_4EdgeESaIS4_ENSt8__detail10_Select1stESt8equal_toIS0_ESt4hashIS0_ENS6_18_Mod_range_hashingENS6_20_Default_ranged_hashENS6_20_Prime_rehash_policyENS6_17_Hashtable_traitsILb1ELb0ELb1EEEE21_M_uses_single_bucketEPPNS6_15_Hash_node_baseE, symObjAddr: 0x6D40, symBinAddr: 0x100008C50, symSize: 0x3C }
  - { offsetInCU: 0x232B3, offset: 0x232B3, size: 0x8, addend: 0x0, symName: __ZNSt8__detail16_Hashtable_allocISaINS_10_Hash_nodeISt4pairIK6Vertex4EdgeELb1EEEEE21_M_deallocate_bucketsEPPNS_15_Hash_node_baseEm, symObjAddr: 0x6D7C, symBinAddr: 0x100008C8C, symSize: 0x78 }
  - { offsetInCU: 0x232EE, offset: 0x232EE, size: 0x8, addend: 0x0, symName: __ZNSt8__detail16_Hashtable_allocISaINS_10_Hash_nodeISt4pairIK6Vertex4EdgeELb1EEEEE18_M_deallocate_nodeEPS7_, symObjAddr: 0x6CD0, symBinAddr: 0x100008BE0, symSize: 0x70 }
  - { offsetInCU: 0x232F6, offset: 0x232F6, size: 0x8, addend: 0x0, symName: __ZNKSt10_HashtableI6VertexSt4pairIKS0_4EdgeESaIS4_ENSt8__detail10_Select1stESt8equal_toIS0_ESt4hashIS0_ENS6_18_Mod_range_hashingENS6_20_Default_ranged_hashENS6_20_Prime_rehash_policyENS6_17_Hashtable_traitsILb1ELb0ELb1EEEE21_M_uses_single_bucketEPPNS6_15_Hash_node_baseE, symObjAddr: 0x6D40, symBinAddr: 0x100008C50, symSize: 0x3C }
  - { offsetInCU: 0x23395, offset: 0x23395, size: 0x8, addend: 0x0, symName: __ZNKSt8__detail10_Hash_nodeISt4pairIK6Vertex4EdgeELb1EE7_M_nextEv, symObjAddr: 0x6CB8, symBinAddr: 0x100008BC8, symSize: 0x18 }
  - { offsetInCU: 0x2339D, offset: 0x2339D, size: 0x8, addend: 0x0, symName: __ZNSt8__detail16_Hashtable_allocISaINS_10_Hash_nodeISt4pairIK6Vertex4EdgeELb1EEEEE18_M_deallocate_nodeEPS7_, symObjAddr: 0x6CD0, symBinAddr: 0x100008BE0, symSize: 0x70 }
  - { offsetInCU: 0x233C4, offset: 0x233C4, size: 0x8, addend: 0x0, symName: __ZNSt11_Deque_baseIiSaIiEE16_M_allocate_nodeEv, symObjAddr: 0x6C74, symBinAddr: 0x100008B84, symSize: 0x44 }
  - { offsetInCU: 0x233CC, offset: 0x233CC, size: 0x8, addend: 0x0, symName: __ZNKSt8__detail10_Hash_nodeISt4pairIK6Vertex4EdgeELb1EE7_M_nextEv, symObjAddr: 0x6CB8, symBinAddr: 0x100008BC8, symSize: 0x18 }
  - { offsetInCU: 0x23425, offset: 0x23425, size: 0x8, addend: 0x0, symName: __ZNSt5dequeIiSaIiEE22_M_reserve_map_at_backEm, symObjAddr: 0x6C14, symBinAddr: 0x100008B24, symSize: 0x60 }
  - { offsetInCU: 0x2342D, offset: 0x2342D, size: 0x8, addend: 0x0, symName: __ZNSt11_Deque_baseIiSaIiEE16_M_allocate_nodeEv, symObjAddr: 0x6C74, symBinAddr: 0x100008B84, symSize: 0x44 }
  - { offsetInCU: 0x23468, offset: 0x23468, size: 0x8, addend: 0x0, symName: __ZNKSt5dequeIiSaIiEE8max_sizeEv, symObjAddr: 0x6BF4, symBinAddr: 0x100008B04, symSize: 0x20 }
  - { offsetInCU: 0x23470, offset: 0x23470, size: 0x8, addend: 0x0, symName: __ZNSt5dequeIiSaIiEE22_M_reserve_map_at_backEm, symObjAddr: 0x6C14, symBinAddr: 0x100008B24, symSize: 0x60 }
  - { offsetInCU: 0x23497, offset: 0x23497, size: 0x8, addend: 0x0, symName: __ZNKSt5dequeIiSaIiEE4sizeEv, symObjAddr: 0x6BC4, symBinAddr: 0x100008AD4, symSize: 0x30 }
  - { offsetInCU: 0x2349F, offset: 0x2349F, size: 0x8, addend: 0x0, symName: __ZNKSt5dequeIiSaIiEE8max_sizeEv, symObjAddr: 0x6BF4, symBinAddr: 0x100008B04, symSize: 0x20 }
  - { offsetInCU: 0x234C6, offset: 0x234C6, size: 0x8, addend: 0x0, symName: __ZNSt5dequeIiSaIiEE16_M_push_back_auxIJiEEEvDpOT_, symObjAddr: 0x6AA4, symBinAddr: 0x1000089B4, symSize: 0x120 }
  - { offsetInCU: 0x234CE, offset: 0x234CE, size: 0x8, addend: 0x0, symName: __ZNKSt5dequeIiSaIiEE4sizeEv, symObjAddr: 0x6BC4, symBinAddr: 0x100008AD4, symSize: 0x30 }
  - { offsetInCU: 0x2361E, offset: 0x2361E, size: 0x8, addend: 0x0, symName: __ZNSt13_Bvector_baseISaIbEE18_Bvector_impl_data8_M_resetEv, symObjAddr: 0x6A6C, symBinAddr: 0x10000897C, symSize: 0x38 }
  - { offsetInCU: 0x23626, offset: 0x23626, size: 0x8, addend: 0x0, symName: __ZNSt5dequeIiSaIiEE16_M_push_back_auxIJiEEEvDpOT_, symObjAddr: 0x6AA4, symBinAddr: 0x1000089B4, symSize: 0x120 }
  - { offsetInCU: 0x236DB, offset: 0x236DB, size: 0x8, addend: 0x0, symName: __ZNSt13_Bvector_baseISaIbEE18_Bvector_impl_dataC1Ev, symObjAddr: 0x6A38, symBinAddr: 0x100008948, symSize: 0x34 }
  - { offsetInCU: 0x236E3, offset: 0x236E3, size: 0x8, addend: 0x0, symName: __ZNSt13_Bvector_baseISaIbEE18_Bvector_impl_data8_M_resetEv, symObjAddr: 0x6A6C, symBinAddr: 0x10000897C, symSize: 0x38 }
  - { offsetInCU: 0x2370A, offset: 0x2370A, size: 0x8, addend: 0x0, symName: __ZNSt13_Bvector_baseISaIbEE18_Bvector_impl_dataC2Ev, symObjAddr: 0x6A04, symBinAddr: 0x100008914, symSize: 0x34 }
  - { offsetInCU: 0x23712, offset: 0x23712, size: 0x8, addend: 0x0, symName: __ZNSt13_Bvector_baseISaIbEE18_Bvector_impl_dataC1Ev, symObjAddr: 0x6A38, symBinAddr: 0x100008948, symSize: 0x34 }
  - { offsetInCU: 0x23774, offset: 0x23774, size: 0x8, addend: 0x0, symName: __ZNSt15__new_allocatorImED2Ev, symObjAddr: 0x69F0, symBinAddr: 0x100008900, symSize: 0x14 }
  - { offsetInCU: 0x2377C, offset: 0x2377C, size: 0x8, addend: 0x0, symName: __ZNSt13_Bvector_baseISaIbEE18_Bvector_impl_dataC2Ev, symObjAddr: 0x6A04, symBinAddr: 0x100008914, symSize: 0x34 }
  - { offsetInCU: 0x23806, offset: 0x23806, size: 0x8, addend: 0x0, symName: __ZNKSt11_Deque_baseIiSaIiEE20_M_get_map_allocatorEv, symObjAddr: 0x69A8, symBinAddr: 0x1000088B8, symSize: 0x48 }
  - { offsetInCU: 0x2380E, offset: 0x2380E, size: 0x8, addend: 0x0, symName: __ZNSt15__new_allocatorImED2Ev, symObjAddr: 0x69F0, symBinAddr: 0x100008900, symSize: 0x14 }
  - { offsetInCU: 0x2388D, offset: 0x2388D, size: 0x8, addend: 0x0, symName: __ZNSt11_Deque_baseIiSaIiEE18_M_deallocate_nodeEPi, symObjAddr: 0x6950, symBinAddr: 0x100008860, symSize: 0x58 }
  - { offsetInCU: 0x23895, offset: 0x23895, size: 0x8, addend: 0x0, symName: __ZNKSt11_Deque_baseIiSaIiEE20_M_get_map_allocatorEv, symObjAddr: 0x69A8, symBinAddr: 0x1000088B8, symSize: 0x48 }
  - { offsetInCU: 0x2390E, offset: 0x2390E, size: 0x8, addend: 0x0, symName: __ZNSt15_Deque_iteratorIiRiPiE11_M_set_nodeEPS1_, symObjAddr: 0x68F4, symBinAddr: 0x100008804, symSize: 0x5C }
  - { offsetInCU: 0x23916, offset: 0x23916, size: 0x8, addend: 0x0, symName: __ZNSt11_Deque_baseIiSaIiEE18_M_deallocate_nodeEPi, symObjAddr: 0x6950, symBinAddr: 0x100008860, symSize: 0x58 }
  - { offsetInCU: 0x23951, offset: 0x23951, size: 0x8, addend: 0x0, symName: __ZNSt11_Deque_baseIiSaIiEE15_M_create_nodesEPPiS3_, symObjAddr: 0x6868, symBinAddr: 0x100008778, symSize: 0x8C }
  - { offsetInCU: 0x23959, offset: 0x23959, size: 0x8, addend: 0x0, symName: __ZNSt15_Deque_iteratorIiRiPiE11_M_set_nodeEPS1_, symObjAddr: 0x68F4, symBinAddr: 0x100008804, symSize: 0x5C }
  - { offsetInCU: 0x239BC, offset: 0x239BC, size: 0x8, addend: 0x0, symName: __ZNSt11_Deque_baseIiSaIiEE15_M_allocate_mapEm, symObjAddr: 0x67E8, symBinAddr: 0x1000086F8, symSize: 0x80 }
  - { offsetInCU: 0x239C4, offset: 0x239C4, size: 0x8, addend: 0x0, symName: __ZNSt11_Deque_baseIiSaIiEE15_M_create_nodesEPPiS3_, symObjAddr: 0x6868, symBinAddr: 0x100008778, symSize: 0x8C }
  - { offsetInCU: 0x23AD2, offset: 0x23AD2, size: 0x8, addend: 0x0, symName: __ZNSt11_Deque_baseIiSaIiEE16_Deque_impl_dataC2Ev, symObjAddr: 0x67A8, symBinAddr: 0x1000086B8, symSize: 0x40 }
  - { offsetInCU: 0x23ADA, offset: 0x23ADA, size: 0x8, addend: 0x0, symName: __ZNSt11_Deque_baseIiSaIiEE15_M_allocate_mapEm, symObjAddr: 0x67E8, symBinAddr: 0x1000086F8, symSize: 0x80 }
  - { offsetInCU: 0x23AD0, offset: 0x23AD0, size: 0x8, addend: 0x0, symName: __ZNSt10_HashtableIiSt4pairIKi4EdgeESaIS3_ENSt8__detail10_Select1stESt8equal_toIiESt4hashIiENS5_18_Mod_range_hashingENS5_20_Default_ranged_hashENS5_20_Prime_rehash_policyENS5_17_Hashtable_traitsILb0ELb0ELb1EEEE22_M_insert_bucket_beginEmPNS5_10_Hash_nodeIS3_Lb0EEE, symObjAddr: 0x669C, symBinAddr: 0x1000085AC, symSize: 0x10C }
  - { offsetInCU: 0x23AD8, offset: 0x23AD8, size: 0x8, addend: 0x0, symName: __ZNSt11_Deque_baseIiSaIiEE16_Deque_impl_dataC2Ev, symObjAddr: 0x67A8, symBinAddr: 0x1000086B8, symSize: 0x40 }
  - { offsetInCU: 0x23B27, offset: 0x23B27, size: 0x8, addend: 0x0, symName: __ZNKSt8__detail15_Hash_code_baseIiSt4pairIKi4EdgeENS_10_Select1stESt4hashIiENS_18_Mod_range_hashingENS_20_Default_ranged_hashELb0EE13_M_store_codeERNS_21_Hash_node_code_cacheILb0EEEm, symObjAddr: 0x6680, symBinAddr: 0x100008590, symSize: 0x1C }
  - { offsetInCU: 0x23B2F, offset: 0x23B2F, size: 0x8, addend: 0x0, symName: __ZNSt10_HashtableIiSt4pairIKi4EdgeESaIS3_ENSt8__detail10_Select1stESt8equal_toIiESt4hashIiENS5_18_Mod_range_hashingENS5_20_Default_ranged_hashENS5_20_Prime_rehash_policyENS5_17_Hashtable_traitsILb0ELb0ELb1EEEE22_M_insert_bucket_beginEmPNS5_10_Hash_nodeIS3_Lb0EEE, symObjAddr: 0x669C, symBinAddr: 0x1000085AC, symSize: 0x10C }
  - { offsetInCU: 0x23B70, offset: 0x23B70, size: 0x8, addend: 0x0, symName: __ZNSt10_HashtableIiSt4pairIKi4EdgeESaIS3_ENSt8__detail10_Select1stESt8equal_toIiESt4hashIiENS5_18_Mod_range_hashingENS5_20_Default_ranged_hashENS5_20_Prime_rehash_policyENS5_17_Hashtable_traitsILb0ELb0ELb1EEEE9_M_rehashEmRKm, symObjAddr: 0x6614, symBinAddr: 0x100008524, symSize: 0x6C }
  - { offsetInCU: 0x23B78, offset: 0x23B78, size: 0x8, addend: 0x0, symName: __ZNKSt8__detail15_Hash_code_baseIiSt4pairIKi4EdgeENS_10_Select1stESt4hashIiENS_18_Mod_range_hashingENS_20_Default_ranged_hashELb0EE13_M_store_codeERNS_21_Hash_node_code_cacheILb0EEEm, symObjAddr: 0x6680, symBinAddr: 0x100008590, symSize: 0x1C }
  - { offsetInCU: 0x23BC7, offset: 0x23BC7, size: 0x8, addend: 0x0, symName: __ZNSt8__detail16_Hashtable_allocISaINS_10_Hash_nodeISt4pairIKi4EdgeELb0EEEEE18_M_deallocate_nodeEPS6_, symObjAddr: 0x65AC, symBinAddr: 0x1000084BC, symSize: 0x68 }
  - { offsetInCU: 0x23BCF, offset: 0x23BCF, size: 0x8, addend: 0x0, symName: __ZNSt10_HashtableIiSt4pairIKi4EdgeESaIS3_ENSt8__detail10_Select1stESt8equal_toIiESt4hashIiENS5_18_Mod_range_hashingENS5_20_Default_ranged_hashENS5_20_Prime_rehash_policyENS5_17_Hashtable_traitsILb0ELb0ELb1EEEE9_M_rehashEmRKm, symObjAddr: 0x6614, symBinAddr: 0x100008524, symSize: 0x6C }
  - { offsetInCU: 0x23C6E, offset: 0x23C6E, size: 0x8, addend: 0x0, symName: __ZNSt8__detail16_Hashtable_allocISaINS_10_Hash_nodeISt4pairIKi4EdgeELb0EEEEE16_M_allocate_nodeIJRKSt21piecewise_construct_tSt5tupleIJRS3_EESD_IJEEEEEPS6_DpOT_, symObjAddr: 0x63C8, symBinAddr: 0x1000082D8, symSize: 0x1E4 }
  - { offsetInCU: 0x23C76, offset: 0x23C76, size: 0x8, addend: 0x0, symName: __ZNSt8__detail16_Hashtable_allocISaINS_10_Hash_nodeISt4pairIKi4EdgeELb0EEEEE18_M_deallocate_nodeEPS6_, symObjAddr: 0x65AC, symBinAddr: 0x1000084BC, symSize: 0x68 }
  - { offsetInCU: 0x23E90, offset: 0x23E90, size: 0x8, addend: 0x0, symName: __ZNSt8__detail10_Hash_nodeISt4pairIKi4EdgeELb0EEC1Ev, symObjAddr: 0x63A8, symBinAddr: 0x1000082B8, symSize: 0x20 }
  - { offsetInCU: 0x23E98, offset: 0x23E98, size: 0x8, addend: 0x0, symName: __ZNSt8__detail16_Hashtable_allocISaINS_10_Hash_nodeISt4pairIKi4EdgeELb0EEEEE16_M_allocate_nodeIJRKSt21piecewise_construct_tSt5tupleIJRS3_EESD_IJEEEEEPS6_DpOT_, symObjAddr: 0x63C8, symBinAddr: 0x1000082D8, symSize: 0x1E4 }
  - { offsetInCU: 0x23EE4, offset: 0x23EE4, size: 0x8, addend: 0x0, symName: __ZSt7forwardISt5tupleIJEEEOT_RNSt16remove_referenceIS2_E4typeE, symObjAddr: 0x6394, symBinAddr: 0x1000082A4, symSize: 0x14 }
  - { offsetInCU: 0x23EEC, offset: 0x23EEC, size: 0x8, addend: 0x0, symName: __ZNSt8__detail10_Hash_nodeISt4pairIKi4EdgeELb0EEC1Ev, symObjAddr: 0x63A8, symBinAddr: 0x1000082B8, symSize: 0x20 }
  - { offsetInCU: 0x23F46, offset: 0x23F46, size: 0x8, addend: 0x0, symName: __ZSt7forwardISt5tupleIJRKiEEEOT_RNSt16remove_referenceIS4_E4typeE, symObjAddr: 0x6380, symBinAddr: 0x100008290, symSize: 0x14 }
  - { offsetInCU: 0x23F4E, offset: 0x23F4E, size: 0x8, addend: 0x0, symName: __ZSt7forwardISt5tupleIJEEEOT_RNSt16remove_referenceIS2_E4typeE, symObjAddr: 0x6394, symBinAddr: 0x1000082A4, symSize: 0x14 }
  - { offsetInCU: 0x23FB1, offset: 0x23FB1, size: 0x8, addend: 0x0, symName: __ZSt7forwardIRKSt21piecewise_construct_tEOT_RNSt16remove_referenceIS3_E4typeE, symObjAddr: 0x636C, symBinAddr: 0x10000827C, symSize: 0x14 }
  - { offsetInCU: 0x23FB9, offset: 0x23FB9, size: 0x8, addend: 0x0, symName: __ZSt7forwardISt5tupleIJRKiEEEOT_RNSt16remove_referenceIS4_E4typeE, symObjAddr: 0x6380, symBinAddr: 0x100008290, symSize: 0x14 }
  - { offsetInCU: 0x23FD8, offset: 0x23FD8, size: 0x8, addend: 0x0, symName: __ZNSt11_Tuple_implILm0EJRKiEEC2ES1_, symObjAddr: 0x6344, symBinAddr: 0x100008254, symSize: 0x28 }
  - { offsetInCU: 0x23FE0, offset: 0x23FE0, size: 0x8, addend: 0x0, symName: __ZSt7forwardIRKSt21piecewise_construct_tEOT_RNSt16remove_referenceIS3_E4typeE, symObjAddr: 0x636C, symBinAddr: 0x10000827C, symSize: 0x14 }
  - { offsetInCU: 0x23FEF, offset: 0x23FEF, size: 0x8, addend: 0x0, symName: __ZNKSt10_HashtableIiSt4pairIKi4EdgeESaIS3_ENSt8__detail10_Select1stESt8equal_toIiESt4hashIiENS5_18_Mod_range_hashingENS5_20_Default_ranged_hashENS5_20_Prime_rehash_policyENS5_17_Hashtable_traitsILb0ELb0ELb1EEEE19_M_find_before_nodeEmRS1_m, symObjAddr: 0x6244, symBinAddr: 0x100008154, symSize: 0x100 }
  - { offsetInCU: 0x23FF7, offset: 0x23FF7, size: 0x8, addend: 0x0, symName: __ZNSt11_Tuple_implILm0EJRKiEEC2ES1_, symObjAddr: 0x6344, symBinAddr: 0x100008254, symSize: 0x28 }
  - { offsetInCU: 0x24094, offset: 0x24094, size: 0x8, addend: 0x0, symName: __ZNKSt8__detail15_Hash_code_baseIiSt4pairIKi4EdgeENS_10_Select1stESt4hashIiENS_18_Mod_range_hashingENS_20_Default_ranged_hashELb0EE15_M_bucket_indexEmm, symObjAddr: 0x6218, symBinAddr: 0x100008128, symSize: 0x2C }
  - { offsetInCU: 0x2409C, offset: 0x2409C, size: 0x8, addend: 0x0, symName: __ZNKSt10_HashtableIiSt4pairIKi4EdgeESaIS3_ENSt8__detail10_Select1stESt8equal_toIiESt4hashIiENS5_18_Mod_range_hashingENS5_20_Default_ranged_hashENS5_20_Prime_rehash_policyENS5_17_Hashtable_traitsILb0ELb0ELb1EEEE19_M_find_before_nodeEmRS1_m, symObjAddr: 0x6244, symBinAddr: 0x100008154, symSize: 0x100 }
  - { offsetInCU: 0x240EB, offset: 0x240EB, size: 0x8, addend: 0x0, symName: __ZNKSt8__detail15_Hash_code_baseIiSt4pairIKi4EdgeENS_10_Select1stESt4hashIiENS_18_Mod_range_hashingENS_20_Default_ranged_hashELb0EE7_M_hashEv, symObjAddr: 0x61FC, symBinAddr: 0x10000810C, symSize: 0x1C }
  - { offsetInCU: 0x240F3, offset: 0x240F3, size: 0x8, addend: 0x0, symName: __ZNKSt8__detail15_Hash_code_baseIiSt4pairIKi4EdgeENS_10_Select1stESt4hashIiENS_18_Mod_range_hashingENS_20_Default_ranged_hashELb0EE15_M_bucket_indexEmm, symObjAddr: 0x6218, symBinAddr: 0x100008128, symSize: 0x2C }
  - { offsetInCU: 0x241B3, offset: 0x241B3, size: 0x8, addend: 0x0, symName: __ZSt12__relocate_aIPiS0_SaIiEET0_T_S3_S2_RT1_, symObjAddr: 0x61A0, symBinAddr: 0x1000080B0, symSize: 0x5C }
  - { offsetInCU: 0x241BB, offset: 0x241BB, size: 0x8, addend: 0x0, symName: __ZNKSt8__detail15_Hash_code_baseIiSt4pairIKi4EdgeENS_10_Select1stESt4hashIiENS_18_Mod_range_hashingENS_20_Default_ranged_hashELb0EE7_M_hashEv, symObjAddr: 0x61FC, symBinAddr: 0x10000810C, symSize: 0x1C }
  - { offsetInCU: 0x241F3, offset: 0x241F3, size: 0x8, addend: 0x0, symName: __ZNSt20__uninitialized_copyILb1EE13__uninit_copyIN9__gnu_cxx17__normal_iteratorIPKiSt6vectorIiSaIiEEEEPiEET0_T_SC_SB_, symObjAddr: 0x6174, symBinAddr: 0x100008084, symSize: 0x2C }
  - { offsetInCU: 0x241FB, offset: 0x241FB, size: 0x8, addend: 0x0, symName: __ZSt12__relocate_aIPiS0_SaIiEET0_T_S3_S2_RT1_, symObjAddr: 0x61A0, symBinAddr: 0x1000080B0, symSize: 0x5C }
  - { offsetInCU: 0x24264, offset: 0x24264, size: 0x8, addend: 0x0, symName: __ZNSt15__new_allocatorIiE10deallocateEPim, symObjAddr: 0x6144, symBinAddr: 0x100008054, symSize: 0x30 }
  - { offsetInCU: 0x2426C, offset: 0x2426C, size: 0x8, addend: 0x0, symName: __ZNSt20__uninitialized_copyILb1EE13__uninit_copyIN9__gnu_cxx17__normal_iteratorIPKiSt6vectorIiSaIiEEEEPiEET0_T_SC_SB_, symObjAddr: 0x6174, symBinAddr: 0x100008084, symSize: 0x2C }
  - { offsetInCU: 0x2430D, offset: 0x2430D, size: 0x8, addend: 0x0, symName: __ZSt18uninitialized_copyIPKiPiET0_T_S4_S3_, symObjAddr: 0x6108, symBinAddr: 0x100008018, symSize: 0x3C }
  - { offsetInCU: 0x24315, offset: 0x24315, size: 0x8, addend: 0x0, symName: __ZNSt15__new_allocatorIiE10deallocateEPim, symObjAddr: 0x6144, symBinAddr: 0x100008054, symSize: 0x30 }
  - { offsetInCU: 0x243F2, offset: 0x243F2, size: 0x8, addend: 0x0, symName: __ZSt20uninitialized_fill_nIPimiET_S1_T0_RKT1_, symObjAddr: 0x60D4, symBinAddr: 0x100007FE4, symSize: 0x34 }
  - { offsetInCU: 0x243FA, offset: 0x243FA, size: 0x8, addend: 0x0, symName: __ZSt18uninitialized_copyIPKiPiET0_T_S4_S3_, symObjAddr: 0x6108, symBinAddr: 0x100008018, symSize: 0x3C }
  - { offsetInCU: 0x2442E, offset: 0x2442E, size: 0x8, addend: 0x0, symName: __ZNSt12_Destroy_auxILb1EE9__destroyIPiEEvT_S3_, symObjAddr: 0x60BC, symBinAddr: 0x100007FCC, symSize: 0x18 }
  - { offsetInCU: 0x24436, offset: 0x24436, size: 0x8, addend: 0x0, symName: __ZSt20uninitialized_fill_nIPimiET_S1_T0_RKT1_, symObjAddr: 0x60D4, symBinAddr: 0x100007FE4, symSize: 0x34 }
  - { offsetInCU: 0x244D8, offset: 0x244D8, size: 0x8, addend: 0x0, symName: __ZSt25__uninitialized_default_nIPimET_S1_T0_, symObjAddr: 0x6090, symBinAddr: 0x100007FA0, symSize: 0x2C }
  - { offsetInCU: 0x244E0, offset: 0x244E0, size: 0x8, addend: 0x0, symName: __ZNSt12_Destroy_auxILb1EE9__destroyIPiEEvT_S3_, symObjAddr: 0x60BC, symBinAddr: 0x100007FCC, symSize: 0x18 }
  - { offsetInCU: 0x24533, offset: 0x24533, size: 0x8, addend: 0x0, symName: __ZN9__gnu_cxx16__aligned_bufferISt4pairIKi4EdgeEE6_M_ptrEv, symObjAddr: 0x6074, symBinAddr: 0x100007F84, symSize: 0x1C }
  - { offsetInCU: 0x2453B, offset: 0x2453B, size: 0x8, addend: 0x0, symName: __ZSt25__uninitialized_default_nIPimET_S1_T0_, symObjAddr: 0x6090, symBinAddr: 0x100007FA0, symSize: 0x2C }
  - { offsetInCU: 0x245E4, offset: 0x245E4, size: 0x8, addend: 0x0, symName: __ZNSt8__detail19_Node_iterator_baseISt4pairIKi4EdgeELb0EEC2EPNS_10_Hash_nodeIS4_Lb0EEE, symObjAddr: 0x6050, symBinAddr: 0x100007F60, symSize: 0x24 }
  - { offsetInCU: 0x245EC, offset: 0x245EC, size: 0x8, addend: 0x0, symName: __ZN9__gnu_cxx16__aligned_bufferISt4pairIKi4EdgeEE6_M_ptrEv, symObjAddr: 0x6074, symBinAddr: 0x100007F84, symSize: 0x1C }
  - { offsetInCU: 0x245C8, offset: 0x245C8, size: 0x8, addend: 0x0, symName: __ZNSt12_Destroy_auxILb0EE9__destroyIPSt13unordered_mapIi4EdgeSt4hashIiESt8equal_toIiESaISt4pairIKiS3_EEEEEvT_SE_, symObjAddr: 0x6004, symBinAddr: 0x100007F14, symSize: 0x4C }
  - { offsetInCU: 0x245D0, offset: 0x245D0, size: 0x8, addend: 0x0, symName: __ZNSt8__detail19_Node_iterator_baseISt4pairIKi4EdgeELb0EEC2EPNS_10_Hash_nodeIS4_Lb0EEE, symObjAddr: 0x6050, symBinAddr: 0x100007F60, symSize: 0x24 }
  - { offsetInCU: 0x246DA, offset: 0x246DA, size: 0x8, addend: 0x0, symName: __ZSt25__uninitialized_default_nIPSt13unordered_mapIi4EdgeSt4hashIiESt8equal_toIiESaISt4pairIKiS1_EEEmET_SC_T0_, symObjAddr: 0x5FD8, symBinAddr: 0x100007EE8, symSize: 0x2C }
  - { offsetInCU: 0x246E2, offset: 0x246E2, size: 0x8, addend: 0x0, symName: __ZNSt12_Destroy_auxILb0EE9__destroyIPSt13unordered_mapIi4EdgeSt4hashIiESt8equal_toIiESaISt4pairIKiS3_EEEEEvT_SE_, symObjAddr: 0x6004, symBinAddr: 0x100007F14, symSize: 0x4C }
  - { offsetInCU: 0x246DB, offset: 0x246DB, size: 0x8, addend: 0x0, symName: __ZNSt12_Vector_baseISt13unordered_mapIi4EdgeSt4hashIiESt8equal_toIiESaISt4pairIKiS1_EEESaISA_EE11_M_allocateEm, symObjAddr: 0x5F88, symBinAddr: 0x100007E98, symSize: 0x50 }
  - { offsetInCU: 0x246E3, offset: 0x246E3, size: 0x8, addend: 0x0, symName: __ZSt25__uninitialized_default_nIPSt13unordered_mapIi4EdgeSt4hashIiESt8equal_toIiESaISt4pairIKiS1_EEEmET_SC_T0_, symObjAddr: 0x5FD8, symBinAddr: 0x100007EE8, symSize: 0x2C }
  - { offsetInCU: 0x247E0, offset: 0x247E0, size: 0x8, addend: 0x0, symName: __ZNSt12_Vector_baseISt13unordered_mapIi4EdgeSt4hashIiESt8equal_toIiESaISt4pairIKiS1_EEESaISA_EE17_Vector_impl_dataC2Ev, symObjAddr: 0x5F5C, symBinAddr: 0x100007E6C, symSize: 0x2C }
  - { offsetInCU: 0x247E8, offset: 0x247E8, size: 0x8, addend: 0x0, symName: __ZNSt12_Vector_baseISt13unordered_mapIi4EdgeSt4hashIiESt8equal_toIiESaISt4pairIKiS1_EEESaISA_EE11_M_allocateEm, symObjAddr: 0x5F88, symBinAddr: 0x100007E98, symSize: 0x50 }
  - { offsetInCU: 0x247D7, offset: 0x247D7, size: 0x8, addend: 0x0, symName: __ZNSt12_Destroy_auxILb0EE9__destroyIP6VertexEEvT_S4_, symObjAddr: 0x5F10, symBinAddr: 0x100007E20, symSize: 0x4C }
  - { offsetInCU: 0x247DF, offset: 0x247DF, size: 0x8, addend: 0x0, symName: __ZNSt12_Vector_baseISt13unordered_mapIi4EdgeSt4hashIiESt8equal_toIiESaISt4pairIKiS1_EEESaISA_EE17_Vector_impl_dataC2Ev, symObjAddr: 0x5F5C, symBinAddr: 0x100007E6C, symSize: 0x2C }
  - { offsetInCU: 0x24896, offset: 0x24896, size: 0x8, addend: 0x0, symName: __ZSt25__uninitialized_default_nIP6VertexmET_S2_T0_, symObjAddr: 0x5EE4, symBinAddr: 0x100007DF4, symSize: 0x2C }
  - { offsetInCU: 0x2489E, offset: 0x2489E, size: 0x8, addend: 0x0, symName: __ZNSt12_Destroy_auxILb0EE9__destroyIP6VertexEEvT_S4_, symObjAddr: 0x5F10, symBinAddr: 0x100007E20, symSize: 0x4C }
  - { offsetInCU: 0x248EA, offset: 0x248EA, size: 0x8, addend: 0x0, symName: __ZNSt12_Vector_baseI6VertexSaIS0_EE11_M_allocateEm, symObjAddr: 0x5E94, symBinAddr: 0x100007DA4, symSize: 0x50 }
  - { offsetInCU: 0x248F2, offset: 0x248F2, size: 0x8, addend: 0x0, symName: __ZSt25__uninitialized_default_nIP6VertexmET_S2_T0_, symObjAddr: 0x5EE4, symBinAddr: 0x100007DF4, symSize: 0x2C }
  - { offsetInCU: 0x249B3, offset: 0x249B3, size: 0x8, addend: 0x0, symName: __ZNSt12_Vector_baseI6VertexSaIS0_EE17_Vector_impl_dataC2Ev, symObjAddr: 0x5E68, symBinAddr: 0x100007D78, symSize: 0x2C }
  - { offsetInCU: 0x249BB, offset: 0x249BB, size: 0x8, addend: 0x0, symName: __ZNSt12_Vector_baseI6VertexSaIS0_EE11_M_allocateEm, symObjAddr: 0x5E94, symBinAddr: 0x100007DA4, symSize: 0x50 }
  - { offsetInCU: 0x24BA8, offset: 0x24BA8, size: 0x8, addend: 0x0, symName: __ZNSt10_HashtableIiSt4pairIKi4EdgeESaIS3_ENSt8__detail10_Select1stESt8equal_toIiESt4hashIiENS5_18_Mod_range_hashingENS5_20_Default_ranged_hashENS5_20_Prime_rehash_policyENS5_17_Hashtable_traitsILb0ELb0ELb1EEEE12_Scoped_nodeC1IJRKSt21piecewise_construct_tSt5tupleIJOiEESM_IJEEEEEPNS5_16_Hashtable_allocISaINS5_10_Hash_nodeIS3_Lb0EEEEEEDpOT_, symObjAddr: 0x5DE0, symBinAddr: 0x100007CF0, symSize: 0x88 }
  - { offsetInCU: 0x24BB0, offset: 0x24BB0, size: 0x8, addend: 0x0, symName: __ZNSt12_Vector_baseI6VertexSaIS0_EE17_Vector_impl_dataC2Ev, symObjAddr: 0x5E68, symBinAddr: 0x100007D78, symSize: 0x2C }
  - { offsetInCU: 0x24B26, offset: 0x24B26, size: 0x8, addend: 0x0, symName: __ZSt16forward_as_tupleIJiEESt5tupleIJDpOT_EES3_, symObjAddr: 0x5DA8, symBinAddr: 0x100007CB8, symSize: 0x38 }
  - { offsetInCU: 0x24B2E, offset: 0x24B2E, size: 0x8, addend: 0x0, symName: __ZNSt10_HashtableIiSt4pairIKi4EdgeESaIS3_ENSt8__detail10_Select1stESt8equal_toIiESt4hashIiENS5_18_Mod_range_hashingENS5_20_Default_ranged_hashENS5_20_Prime_rehash_policyENS5_17_Hashtable_traitsILb0ELb0ELb1EEEE12_Scoped_nodeC1IJRKSt21piecewise_construct_tSt5tupleIJOiEESM_IJEEEEEPNS5_16_Hashtable_allocISaINS5_10_Hash_nodeIS3_Lb0EEEEEEDpOT_, symObjAddr: 0x5DE0, symBinAddr: 0x100007CF0, symSize: 0x88 }
  - { offsetInCU: 0x24B77, offset: 0x24B77, size: 0x8, addend: 0x0, symName: __ZSt18uninitialized_copyIPiS0_ET0_T_S2_S1_, symObjAddr: 0x5D6C, symBinAddr: 0x100007C7C, symSize: 0x3C }
  - { offsetInCU: 0x24B7F, offset: 0x24B7F, size: 0x8, addend: 0x0, symName: __ZSt16forward_as_tupleIJiEESt5tupleIJDpOT_EES3_, symObjAddr: 0x5DA8, symBinAddr: 0x100007CB8, symSize: 0x38 }
  - { offsetInCU: 0x24C1E, offset: 0x24C1E, size: 0x8, addend: 0x0, symName: __ZSt13__copy_move_aILb0EPiS0_ET1_T0_S2_S1_, symObjAddr: 0x5D0C, symBinAddr: 0x100007C1C, symSize: 0x60 }
  - { offsetInCU: 0x24C26, offset: 0x24C26, size: 0x8, addend: 0x0, symName: __ZSt18uninitialized_copyIPiS0_ET0_T_S2_S1_, symObjAddr: 0x5D6C, symBinAddr: 0x100007C7C, symSize: 0x3C }
  - { offsetInCU: 0x24C90, offset: 0x24C90, size: 0x8, addend: 0x0, symName: __ZSt12__miter_baseIPiET_S1_, symObjAddr: 0x5CF8, symBinAddr: 0x100007C08, symSize: 0x14 }
  - { offsetInCU: 0x24C98, offset: 0x24C98, size: 0x8, addend: 0x0, symName: __ZSt13__copy_move_aILb0EPiS0_ET1_T0_S2_S1_, symObjAddr: 0x5D0C, symBinAddr: 0x100007C1C, symSize: 0x60 }
  - { offsetInCU: 0x24D33, offset: 0x24D33, size: 0x8, addend: 0x0, symName: __ZSt8_DestroyIN9__gnu_cxx17__normal_iteratorIPiSt6vectorIiSaIiEEEEEvT_S7_, symObjAddr: 0x5CD0, symBinAddr: 0x100007BE0, symSize: 0x28 }
  - { offsetInCU: 0x24D3B, offset: 0x24D3B, size: 0x8, addend: 0x0, symName: __ZSt12__miter_baseIPiET_S1_, symObjAddr: 0x5CF8, symBinAddr: 0x100007C08, symSize: 0x14 }
  - { offsetInCU: 0x24DF4, offset: 0x24DF4, size: 0x8, addend: 0x0, symName: __ZSt13__copy_move_aILb0EN9__gnu_cxx17__normal_iteratorIPKiSt6vectorIiSaIiEEEENS1_IPiS6_EEET1_T0_SB_SA_, symObjAddr: 0x5C70, symBinAddr: 0x100007B80, symSize: 0x60 }
  - { offsetInCU: 0x24DFC, offset: 0x24DFC, size: 0x8, addend: 0x0, symName: __ZSt8_DestroyIN9__gnu_cxx17__normal_iteratorIPiSt6vectorIiSaIiEEEEEvT_S7_, symObjAddr: 0x5CD0, symBinAddr: 0x100007BE0, symSize: 0x28 }
  - { offsetInCU: 0x24E2C, offset: 0x24E2C, size: 0x8, addend: 0x0, symName: __ZSt12__miter_baseIN9__gnu_cxx17__normal_iteratorIPKiSt6vectorIiSaIiEEEEET_S8_, symObjAddr: 0x5C5C, symBinAddr: 0x100007B6C, symSize: 0x14 }
  - { offsetInCU: 0x24E34, offset: 0x24E34, size: 0x8, addend: 0x0, symName: __ZSt13__copy_move_aILb0EN9__gnu_cxx17__normal_iteratorIPKiSt6vectorIiSaIiEEEENS1_IPiS6_EEET1_T0_SB_SA_, symObjAddr: 0x5C70, symBinAddr: 0x100007B80, symSize: 0x60 }
  - { offsetInCU: 0x24DD9, offset: 0x24DD9, size: 0x8, addend: 0x0, symName: __ZNSt10_HashtableI6VertexSt4pairIKS0_4EdgeESaIS4_ENSt8__detail10_Select1stESt8equal_toIS0_ESt4hashIS0_ENS6_18_Mod_range_hashingENS6_20_Default_ranged_hashENS6_20_Prime_rehash_policyENS6_17_Hashtable_traitsILb1ELb0ELb1EEEE21_M_deallocate_bucketsEPPNS6_15_Hash_node_baseEm, symObjAddr: 0x5C0C, symBinAddr: 0x100007B1C, symSize: 0x50 }
  - { offsetInCU: 0x24DE1, offset: 0x24DE1, size: 0x8, addend: 0x0, symName: __ZSt12__miter_baseIN9__gnu_cxx17__normal_iteratorIPKiSt6vectorIiSaIiEEEEET_S8_, symObjAddr: 0x5C5C, symBinAddr: 0x100007B6C, symSize: 0x14 }
  - { offsetInCU: 0x24E30, offset: 0x24E30, size: 0x8, addend: 0x0, symName: __ZNSt8__detail16_Hashtable_allocISaINS_10_Hash_nodeISt4pairIK6Vertex4EdgeELb1EEEEE19_M_deallocate_nodesEPS7_, symObjAddr: 0x5BBC, symBinAddr: 0x100007ACC, symSize: 0x50 }
  - { offsetInCU: 0x24E38, offset: 0x24E38, size: 0x8, addend: 0x0, symName: __ZNSt10_HashtableI6VertexSt4pairIKS0_4EdgeESaIS4_ENSt8__detail10_Select1stESt8equal_toIS0_ESt4hashIS0_ENS6_18_Mod_range_hashingENS6_20_Default_ranged_hashENS6_20_Prime_rehash_policyENS6_17_Hashtable_traitsILb1ELb0ELb1EEEE21_M_deallocate_bucketsEPPNS6_15_Hash_node_baseEm, symObjAddr: 0x5C0C, symBinAddr: 0x100007B1C, symSize: 0x50 }
  - { offsetInCU: 0x24E99, offset: 0x24E99, size: 0x8, addend: 0x0, symName: __ZNKSt10_HashtableI6VertexSt4pairIKS0_4EdgeESaIS4_ENSt8__detail10_Select1stESt8equal_toIS0_ESt4hashIS0_ENS6_18_Mod_range_hashingENS6_20_Default_ranged_hashENS6_20_Prime_rehash_policyENS6_17_Hashtable_traitsILb1ELb0ELb1EEEE8_M_beginEv, symObjAddr: 0x5BA4, symBinAddr: 0x100007AB4, symSize: 0x18 }
  - { offsetInCU: 0x24EA1, offset: 0x24EA1, size: 0x8, addend: 0x0, symName: __ZNSt8__detail16_Hashtable_allocISaINS_10_Hash_nodeISt4pairIK6Vertex4EdgeELb1EEEEE19_M_deallocate_nodesEPS7_, symObjAddr: 0x5BBC, symBinAddr: 0x100007ACC, symSize: 0x50 }
  - { offsetInCU: 0x24EE1, offset: 0x24EE1, size: 0x8, addend: 0x0, symName: __ZNSt10_HashtableIiSt4pairIKi4EdgeESaIS3_ENSt8__detail10_Select1stESt8equal_toIiESt4hashIiENS5_18_Mod_range_hashingENS5_20_Default_ranged_hashENS5_20_Prime_rehash_policyENS5_17_Hashtable_traitsILb0ELb0ELb1EEEE6rehashEm, symObjAddr: 0x5ADC, symBinAddr: 0x1000079EC, symSize: 0xC8 }
  - { offsetInCU: 0x24EE9, offset: 0x24EE9, size: 0x8, addend: 0x0, symName: __ZNKSt10_HashtableI6VertexSt4pairIKS0_4EdgeESaIS4_ENSt8__detail10_Select1stESt8equal_toIS0_ESt4hashIS0_ENS6_18_Mod_range_hashingENS6_20_Default_ranged_hashENS6_20_Prime_rehash_policyENS6_17_Hashtable_traitsILb1ELb0ELb1EEEE8_M_beginEv, symObjAddr: 0x5BA4, symBinAddr: 0x100007AB4, symSize: 0x18 }
  - { offsetInCU: 0x24F38, offset: 0x24F38, size: 0x8, addend: 0x0, symName: __ZNKSt10_HashtableIiSt4pairIKi4EdgeESaIS3_ENSt8__detail10_Select1stESt8equal_toIiESt4hashIiENS5_18_Mod_range_hashingENS5_20_Default_ranged_hashENS5_20_Prime_rehash_policyENS5_17_Hashtable_traitsILb0ELb0ELb1EEEE15__rehash_policyEv, symObjAddr: 0x5AC4, symBinAddr: 0x1000079D4, symSize: 0x18 }
  - { offsetInCU: 0x24F40, offset: 0x24F40, size: 0x8, addend: 0x0, symName: __ZNSt10_HashtableIiSt4pairIKi4EdgeESaIS3_ENSt8__detail10_Select1stESt8equal_toIiESt4hashIiENS5_18_Mod_range_hashingENS5_20_Default_ranged_hashENS5_20_Prime_rehash_policyENS5_17_Hashtable_traitsILb0ELb0ELb1EEEE6rehashEm, symObjAddr: 0x5ADC, symBinAddr: 0x1000079EC, symSize: 0xC8 }
  - { offsetInCU: 0x24F67, offset: 0x24F67, size: 0x8, addend: 0x0, symName: __ZNSt5dequeIiSaIiEE15_M_pop_back_auxEv, symObjAddr: 0x5A2C, symBinAddr: 0x10000793C, symSize: 0x98 }
  - { offsetInCU: 0x24F6F, offset: 0x24F6F, size: 0x8, addend: 0x0, symName: __ZNKSt10_HashtableIiSt4pairIKi4EdgeESaIS3_ENSt8__detail10_Select1stESt8equal_toIiESt4hashIiENS5_18_Mod_range_hashingENS5_20_Default_ranged_hashENS5_20_Prime_rehash_policyENS5_17_Hashtable_traitsILb0ELb0ELb1EEEE15__rehash_policyEv, symObjAddr: 0x5AC4, symBinAddr: 0x1000079D4, symSize: 0x18 }
  - { offsetInCU: 0x24FFA, offset: 0x24FFA, size: 0x8, addend: 0x0, symName: __ZNSt15_Deque_iteratorIiRiPiEmmEv, symObjAddr: 0x59C0, symBinAddr: 0x1000078D0, symSize: 0x6C }
  - { offsetInCU: 0x25002, offset: 0x25002, size: 0x8, addend: 0x0, symName: __ZNSt5dequeIiSaIiEE15_M_pop_back_auxEv, symObjAddr: 0x5A2C, symBinAddr: 0x10000793C, symSize: 0x98 }
  - { offsetInCU: 0x250A1, offset: 0x250A1, size: 0x8, addend: 0x0, symName: __ZNSt6chrono8durationIdSt5ratioILl1ELl1EEEC1IdvEERKT_, symObjAddr: 0x5998, symBinAddr: 0x1000078A8, symSize: 0x28 }
  - { offsetInCU: 0x250A9, offset: 0x250A9, size: 0x8, addend: 0x0, symName: __ZNSt15_Deque_iteratorIiRiPiEmmEv, symObjAddr: 0x59C0, symBinAddr: 0x1000078D0, symSize: 0x6C }
  - { offsetInCU: 0x250B3, offset: 0x250B3, size: 0x8, addend: 0x0, symName: __ZNSt5dequeIiSaIiEE16_M_push_back_auxIJRKiEEEvDpOT_, symObjAddr: 0x5878, symBinAddr: 0x100007788, symSize: 0x120 }
  - { offsetInCU: 0x250BB, offset: 0x250BB, size: 0x8, addend: 0x0, symName: __ZNSt6chrono8durationIdSt5ratioILl1ELl1EEEC1IdvEERKT_, symObjAddr: 0x5998, symBinAddr: 0x1000078A8, symSize: 0x28 }
  - { offsetInCU: 0x25181, offset: 0x25181, size: 0x8, addend: 0x0, symName: __ZNKSt15_Deque_iteratorIiRiPiEdeEv, symObjAddr: 0x5860, symBinAddr: 0x100007770, symSize: 0x18 }
  - { offsetInCU: 0x25189, offset: 0x25189, size: 0x8, addend: 0x0, symName: __ZNSt5dequeIiSaIiEE16_M_push_back_auxIJRKiEEEvDpOT_, symObjAddr: 0x5878, symBinAddr: 0x100007788, symSize: 0x120 }
  - { offsetInCU: 0x251DF, offset: 0x251DF, size: 0x8, addend: 0x0, symName: __ZSteqRKSt15_Deque_iteratorIiRiPiES4_, symObjAddr: 0x5830, symBinAddr: 0x100007740, symSize: 0x30 }
  - { offsetInCU: 0x251E7, offset: 0x251E7, size: 0x8, addend: 0x0, symName: __ZNKSt15_Deque_iteratorIiRiPiEdeEv, symObjAddr: 0x5860, symBinAddr: 0x100007770, symSize: 0x18 }
  - { offsetInCU: 0x25203, offset: 0x25203, size: 0x8, addend: 0x0, symName: __ZNSt5dequeIiSaIiEE12emplace_backIJiEEERiDpOT_, symObjAddr: 0x5754, symBinAddr: 0x100007664, symSize: 0xDC }
  - { offsetInCU: 0x2520B, offset: 0x2520B, size: 0x8, addend: 0x0, symName: __ZSteqRKSt15_Deque_iteratorIiRiPiES4_, symObjAddr: 0x5830, symBinAddr: 0x100007740, symSize: 0x30 }
  - { offsetInCU: 0x252D0, offset: 0x252D0, size: 0x8, addend: 0x0, symName: __ZNKSt13_Bvector_baseISaIbEE13_Bvector_impl11_M_end_addrEv, symObjAddr: 0x5714, symBinAddr: 0x100007624, symSize: 0x40 }
  - { offsetInCU: 0x252D8, offset: 0x252D8, size: 0x8, addend: 0x0, symName: __ZNSt5dequeIiSaIiEE12emplace_backIJiEEERiDpOT_, symObjAddr: 0x5754, symBinAddr: 0x100007664, symSize: 0xDC }
  - { offsetInCU: 0x2533E, offset: 0x2533E, size: 0x8, addend: 0x0, symName: __ZSt11__addressofImEPT_RS0_, symObjAddr: 0x5700, symBinAddr: 0x100007610, symSize: 0x14 }
  - { offsetInCU: 0x25346, offset: 0x25346, size: 0x8, addend: 0x0, symName: __ZNKSt13_Bvector_baseISaIbEE13_Bvector_impl11_M_end_addrEv, symObjAddr: 0x5714, symBinAddr: 0x100007624, symSize: 0x40 }
  - { offsetInCU: 0x2534A, offset: 0x2534A, size: 0x8, addend: 0x0, symName: __ZNSt13_Bvector_baseISaIbEE8_S_nwordEm, symObjAddr: 0x56E4, symBinAddr: 0x1000075F4, symSize: 0x1C }
  - { offsetInCU: 0x25352, offset: 0x25352, size: 0x8, addend: 0x0, symName: __ZSt11__addressofImEPT_RS0_, symObjAddr: 0x5700, symBinAddr: 0x100007610, symSize: 0x14 }
  - { offsetInCU: 0x2537C, offset: 0x2537C, size: 0x8, addend: 0x0, symName: __ZNSt13_Bvector_baseISaIbEE11_M_allocateEm, symObjAddr: 0x5694, symBinAddr: 0x1000075A4, symSize: 0x50 }
  - { offsetInCU: 0x25384, offset: 0x25384, size: 0x8, addend: 0x0, symName: __ZNSt13_Bvector_baseISaIbEE8_S_nwordEm, symObjAddr: 0x56E4, symBinAddr: 0x1000075F4, symSize: 0x1C }
  - { offsetInCU: 0x25405, offset: 0x25405, size: 0x8, addend: 0x0, symName: __ZNSt13_Bvector_baseISaIbEE13_M_deallocateEv, symObjAddr: 0x5604, symBinAddr: 0x100007514, symSize: 0x90 }
  - { offsetInCU: 0x2540D, offset: 0x2540D, size: 0x8, addend: 0x0, symName: __ZNSt13_Bvector_baseISaIbEE11_M_allocateEm, symObjAddr: 0x5694, symBinAddr: 0x1000075A4, symSize: 0x50 }
  - { offsetInCU: 0x254F8, offset: 0x254F8, size: 0x8, addend: 0x0, symName: __ZNSt13_Bvector_baseISaIbEE13_Bvector_implC1ERKSaImE, symObjAddr: 0x55B8, symBinAddr: 0x1000074C8, symSize: 0x4C }
  - { offsetInCU: 0x25500, offset: 0x25500, size: 0x8, addend: 0x0, symName: __ZNSt13_Bvector_baseISaIbEE13_M_deallocateEv, symObjAddr: 0x5604, symBinAddr: 0x100007514, symSize: 0x90 }
  - { offsetInCU: 0x25608, offset: 0x25608, size: 0x8, addend: 0x0, symName: __ZNSt15_Deque_iteratorIiRiPiEC1ERKS2_, symObjAddr: 0x5560, symBinAddr: 0x100007470, symSize: 0x58 }
  - { offsetInCU: 0x25610, offset: 0x25610, size: 0x8, addend: 0x0, symName: __ZNSt13_Bvector_baseISaIbEE13_Bvector_implC1ERKSaImE, symObjAddr: 0x55B8, symBinAddr: 0x1000074C8, symSize: 0x4C }
  - { offsetInCU: 0x2561D, offset: 0x2561D, size: 0x8, addend: 0x0, symName: __ZNSt11_Deque_baseIiSaIiEE17_M_deallocate_mapEPPim, symObjAddr: 0x5500, symBinAddr: 0x100007410, symSize: 0x60 }
  - { offsetInCU: 0x25625, offset: 0x25625, size: 0x8, addend: 0x0, symName: __ZNSt15_Deque_iteratorIiRiPiEC1ERKS2_, symObjAddr: 0x5560, symBinAddr: 0x100007470, symSize: 0x58 }
  - { offsetInCU: 0x256E6, offset: 0x256E6, size: 0x8, addend: 0x0, symName: __ZNSt11_Deque_baseIiSaIiEE16_M_destroy_nodesEPPiS3_, symObjAddr: 0x54A0, symBinAddr: 0x1000073B0, symSize: 0x60 }
  - { offsetInCU: 0x256EE, offset: 0x256EE, size: 0x8, addend: 0x0, symName: __ZNSt11_Deque_baseIiSaIiEE17_M_deallocate_mapEPPim, symObjAddr: 0x5500, symBinAddr: 0x100007410, symSize: 0x60 }
  - { offsetInCU: 0x25763, offset: 0x25763, size: 0x8, addend: 0x0, symName: __ZNSt11_Deque_baseIiSaIiEE17_M_initialize_mapEm, symObjAddr: 0x5314, symBinAddr: 0x100007224, symSize: 0x18C }
  - { offsetInCU: 0x2576B, offset: 0x2576B, size: 0x8, addend: 0x0, symName: __ZNSt11_Deque_baseIiSaIiEE16_M_destroy_nodesEPPiS3_, symObjAddr: 0x54A0, symBinAddr: 0x1000073B0, symSize: 0x60 }
  - { offsetInCU: 0x25827, offset: 0x25827, size: 0x8, addend: 0x0, symName: __ZNSt11_Deque_baseIiSaIiEE11_Deque_implC1Ev, symObjAddr: 0x52DC, symBinAddr: 0x1000071EC, symSize: 0x38 }
  - { offsetInCU: 0x2582F, offset: 0x2582F, size: 0x8, addend: 0x0, symName: __ZNSt11_Deque_baseIiSaIiEE17_M_initialize_mapEm, symObjAddr: 0x5314, symBinAddr: 0x100007224, symSize: 0x18C }
  - { offsetInCU: 0x25876, offset: 0x25876, size: 0x8, addend: 0x0, symName: __ZNKSt8__detail14_Node_iteratorISt4pairIKi4EdgeELb0ELb0EEptEv, symObjAddr: 0x52B8, symBinAddr: 0x1000071C8, symSize: 0x24 }
  - { offsetInCU: 0x2587E, offset: 0x2587E, size: 0x8, addend: 0x0, symName: __ZNSt11_Deque_baseIiSaIiEE11_Deque_implC1Ev, symObjAddr: 0x52DC, symBinAddr: 0x1000071EC, symSize: 0x38 }
  - { offsetInCU: 0x258A5, offset: 0x258A5, size: 0x8, addend: 0x0, symName: __ZNSt10_HashtableIiSt4pairIKi4EdgeESaIS3_ENSt8__detail10_Select1stESt8equal_toIiESt4hashIiENS5_18_Mod_range_hashingENS5_20_Default_ranged_hashENS5_20_Prime_rehash_policyENS5_17_Hashtable_traitsILb0ELb0ELb1EEEE21_M_insert_unique_nodeEmmPNS5_10_Hash_nodeIS3_Lb0EEEm, symObjAddr: 0x51D0, symBinAddr: 0x1000070E0, symSize: 0xE8 }
  - { offsetInCU: 0x258AD, offset: 0x258AD, size: 0x8, addend: 0x0, symName: __ZNKSt8__detail14_Node_iteratorISt4pairIKi4EdgeELb0ELb0EEptEv, symObjAddr: 0x52B8, symBinAddr: 0x1000071C8, symSize: 0x24 }
  - { offsetInCU: 0x25A5A, offset: 0x25A5A, size: 0x8, addend: 0x0, symName: __ZNSt10_HashtableIiSt4pairIKi4EdgeESaIS3_ENSt8__detail10_Select1stESt8equal_toIiESt4hashIiENS5_18_Mod_range_hashingENS5_20_Default_ranged_hashENS5_20_Prime_rehash_policyENS5_17_Hashtable_traitsILb0ELb0ELb1EEEE12_Scoped_nodeD1Ev, symObjAddr: 0x518C, symBinAddr: 0x10000709C, symSize: 0x44 }
  - { offsetInCU: 0x25A62, offset: 0x25A62, size: 0x8, addend: 0x0, symName: __ZNSt10_HashtableIiSt4pairIKi4EdgeESaIS3_ENSt8__detail10_Select1stESt8equal_toIiESt4hashIiENS5_18_Mod_range_hashingENS5_20_Default_ranged_hashENS5_20_Prime_rehash_policyENS5_17_Hashtable_traitsILb0ELb0ELb1EEEE21_M_insert_unique_nodeEmmPNS5_10_Hash_nodeIS3_Lb0EEEm, symObjAddr: 0x51D0, symBinAddr: 0x1000070E0, symSize: 0xE8 }
  - { offsetInCU: 0x25B69, offset: 0x25B69, size: 0x8, addend: 0x0, symName: __ZNSt10_HashtableIiSt4pairIKi4EdgeESaIS3_ENSt8__detail10_Select1stESt8equal_toIiESt4hashIiENS5_18_Mod_range_hashingENS5_20_Default_ranged_hashENS5_20_Prime_rehash_policyENS5_17_Hashtable_traitsILb0ELb0ELb1EEEE12_Scoped_nodeC1IJRKSt21piecewise_construct_tSt5tupleIJRS1_EESM_IJEEEEEPNS5_16_Hashtable_allocISaINS5_10_Hash_nodeIS3_Lb0EEEEEEDpOT_, symObjAddr: 0x5104, symBinAddr: 0x100007014, symSize: 0x88 }
  - { offsetInCU: 0x25B71, offset: 0x25B71, size: 0x8, addend: 0x0, symName: __ZNSt10_HashtableIiSt4pairIKi4EdgeESaIS3_ENSt8__detail10_Select1stESt8equal_toIiESt4hashIiENS5_18_Mod_range_hashingENS5_20_Default_ranged_hashENS5_20_Prime_rehash_policyENS5_17_Hashtable_traitsILb0ELb0ELb1EEEE12_Scoped_nodeD1Ev, symObjAddr: 0x518C, symBinAddr: 0x10000709C, symSize: 0x44 }
  - { offsetInCU: 0x25AF7, offset: 0x25AF7, size: 0x8, addend: 0x0, symName: __ZNSt5tupleIJRKiEEC1ILb1ELb1EEES1_, symObjAddr: 0x50DC, symBinAddr: 0x100006FEC, symSize: 0x28 }
  - { offsetInCU: 0x25AFF, offset: 0x25AFF, size: 0x8, addend: 0x0, symName: __ZNSt10_HashtableIiSt4pairIKi4EdgeESaIS3_ENSt8__detail10_Select1stESt8equal_toIiESt4hashIiENS5_18_Mod_range_hashingENS5_20_Default_ranged_hashENS5_20_Prime_rehash_policyENS5_17_Hashtable_traitsILb0ELb0ELb1EEEE12_Scoped_nodeC1IJRKSt21piecewise_construct_tSt5tupleIJRS1_EESM_IJEEEEEPNS5_16_Hashtable_allocISaINS5_10_Hash_nodeIS3_Lb0EEEEEEDpOT_, symObjAddr: 0x5104, symBinAddr: 0x100007014, symSize: 0x88 }
  - { offsetInCU: 0x25B1E, offset: 0x25B1E, size: 0x8, addend: 0x0, symName: __ZNKSt10_HashtableIiSt4pairIKi4EdgeESaIS3_ENSt8__detail10_Select1stESt8equal_toIiESt4hashIiENS5_18_Mod_range_hashingENS5_20_Default_ranged_hashENS5_20_Prime_rehash_policyENS5_17_Hashtable_traitsILb0ELb0ELb1EEEE12_M_find_nodeEmRS1_m, symObjAddr: 0x5088, symBinAddr: 0x100006F98, symSize: 0x54 }
  - { offsetInCU: 0x25B26, offset: 0x25B26, size: 0x8, addend: 0x0, symName: __ZNSt5tupleIJRKiEEC1ILb1ELb1EEES1_, symObjAddr: 0x50DC, symBinAddr: 0x100006FEC, symSize: 0x28 }
  - { offsetInCU: 0x25B9D, offset: 0x25B9D, size: 0x8, addend: 0x0, symName: __ZNKSt10_HashtableIiSt4pairIKi4EdgeESaIS3_ENSt8__detail10_Select1stESt8equal_toIiESt4hashIiENS5_18_Mod_range_hashingENS5_20_Default_ranged_hashENS5_20_Prime_rehash_policyENS5_17_Hashtable_traitsILb0ELb0ELb1EEEE15_M_bucket_indexEm, symObjAddr: 0x5058, symBinAddr: 0x100006F68, symSize: 0x30 }
  - { offsetInCU: 0x25BA5, offset: 0x25BA5, size: 0x8, addend: 0x0, symName: __ZNKSt10_HashtableIiSt4pairIKi4EdgeESaIS3_ENSt8__detail10_Select1stESt8equal_toIiESt4hashIiENS5_18_Mod_range_hashingENS5_20_Default_ranged_hashENS5_20_Prime_rehash_policyENS5_17_Hashtable_traitsILb0ELb0ELb1EEEE12_M_find_nodeEmRS1_m, symObjAddr: 0x5088, symBinAddr: 0x100006F98, symSize: 0x54 }
  - { offsetInCU: 0x25BE0, offset: 0x25BE0, size: 0x8, addend: 0x0, symName: __ZNKSt8__detail15_Hash_code_baseIiSt4pairIKi4EdgeENS_10_Select1stESt4hashIiENS_18_Mod_range_hashingENS_20_Default_ranged_hashELb0EE12_M_hash_codeERS2_, symObjAddr: 0x5020, symBinAddr: 0x100006F30, symSize: 0x38 }
  - { offsetInCU: 0x25BE8, offset: 0x25BE8, size: 0x8, addend: 0x0, symName: __ZNKSt10_HashtableIiSt4pairIKi4EdgeESaIS3_ENSt8__detail10_Select1stESt8equal_toIiESt4hashIiENS5_18_Mod_range_hashingENS5_20_Default_ranged_hashENS5_20_Prime_rehash_policyENS5_17_Hashtable_traitsILb0ELb0ELb1EEEE15_M_bucket_indexEm, symObjAddr: 0x5058, symBinAddr: 0x100006F68, symSize: 0x30 }
  - { offsetInCU: 0x25C23, offset: 0x25C23, size: 0x8, addend: 0x0, symName: __ZNKSt6vectorIiSaIiEE8max_sizeEv, symObjAddr: 0x5000, symBinAddr: 0x100006F10, symSize: 0x20 }
  - { offsetInCU: 0x25C2B, offset: 0x25C2B, size: 0x8, addend: 0x0, symName: __ZNKSt8__detail15_Hash_code_baseIiSt4pairIKi4EdgeENS_10_Select1stESt4hashIiENS_18_Mod_range_hashingENS_20_Default_ranged_hashELb0EE12_M_hash_codeERS2_, symObjAddr: 0x5020, symBinAddr: 0x100006F30, symSize: 0x38 }
  - { offsetInCU: 0x25C8E, offset: 0x25C8E, size: 0x8, addend: 0x0, symName: __ZNSt6vectorIiSaIiEE11_S_relocateEPiS2_S2_RS0_, symObjAddr: 0x4FCC, symBinAddr: 0x100006EDC, symSize: 0x34 }
  - { offsetInCU: 0x25C96, offset: 0x25C96, size: 0x8, addend: 0x0, symName: __ZNKSt6vectorIiSaIiEE8max_sizeEv, symObjAddr: 0x5000, symBinAddr: 0x100006F10, symSize: 0x20 }
  - { offsetInCU: 0x25D81, offset: 0x25D81, size: 0x8, addend: 0x0, symName: __ZN9__gnu_cxxmiIPiSt6vectorIiSaIiEEEENS_17__normal_iteratorIT_T0_E15difference_typeERKS8_SB_, symObjAddr: 0x4F8C, symBinAddr: 0x100006E9C, symSize: 0x40 }
  - { offsetInCU: 0x25D89, offset: 0x25D89, size: 0x8, addend: 0x0, symName: __ZNSt6vectorIiSaIiEE11_S_relocateEPiS2_S2_RS0_, symObjAddr: 0x4FCC, symBinAddr: 0x100006EDC, symSize: 0x34 }
  - { offsetInCU: 0x25D73, offset: 0x25D73, size: 0x8, addend: 0x0, symName: __ZNKSt6vectorIiSaIiEE12_M_check_lenEmPKc, symObjAddr: 0x4EBC, symBinAddr: 0x100006DCC, symSize: 0xD0 }
  - { offsetInCU: 0x25D7B, offset: 0x25D7B, size: 0x8, addend: 0x0, symName: __ZN9__gnu_cxxmiIPiSt6vectorIiSaIiEEEENS_17__normal_iteratorIT_T0_E15difference_typeERKS8_SB_, symObjAddr: 0x4F8C, symBinAddr: 0x100006E9C, symSize: 0x40 }
  - { offsetInCU: 0x25E81, offset: 0x25E81, size: 0x8, addend: 0x0, symName: __ZSt7forwardIRKiEOT_RNSt16remove_referenceIS2_E4typeE, symObjAddr: 0x4EA8, symBinAddr: 0x100006DB8, symSize: 0x14 }
  - { offsetInCU: 0x25E89, offset: 0x25E89, size: 0x8, addend: 0x0, symName: __ZNKSt6vectorIiSaIiEE12_M_check_lenEmPKc, symObjAddr: 0x4EBC, symBinAddr: 0x100006DCC, symSize: 0xD0 }
  - { offsetInCU: 0x25F3F, offset: 0x25F3F, size: 0x8, addend: 0x0, symName: __ZSt18uninitialized_copyIN9__gnu_cxx17__normal_iteratorIPKiSt6vectorIiSaIiEEEEPiET0_T_SA_S9_, symObjAddr: 0x4E6C, symBinAddr: 0x100006D7C, symSize: 0x3C }
  - { offsetInCU: 0x25F47, offset: 0x25F47, size: 0x8, addend: 0x0, symName: __ZSt7forwardIRKiEOT_RNSt16remove_referenceIS2_E4typeE, symObjAddr: 0x4EA8, symBinAddr: 0x100006DB8, symSize: 0x14 }
  - { offsetInCU: 0x25F8A, offset: 0x25F8A, size: 0x8, addend: 0x0, symName: __ZNK9__gnu_cxx17__normal_iteratorIPKiSt6vectorIiSaIiEEE4baseEv, symObjAddr: 0x4E58, symBinAddr: 0x100006D68, symSize: 0x14 }
  - { offsetInCU: 0x25F92, offset: 0x25F92, size: 0x8, addend: 0x0, symName: __ZSt18uninitialized_copyIN9__gnu_cxx17__normal_iteratorIPKiSt6vectorIiSaIiEEEEPiET0_T_SA_S9_, symObjAddr: 0x4E6C, symBinAddr: 0x100006D7C, symSize: 0x3C }
  - { offsetInCU: 0x26023, offset: 0x26023, size: 0x8, addend: 0x0, symName: __ZN9__gnu_cxx17__normal_iteratorIPKiSt6vectorIiSaIiEEEC1ERKS2_, symObjAddr: 0x4E30, symBinAddr: 0x100006D40, symSize: 0x28 }
  - { offsetInCU: 0x2602B, offset: 0x2602B, size: 0x8, addend: 0x0, symName: __ZNK9__gnu_cxx17__normal_iteratorIPKiSt6vectorIiSaIiEEE4baseEv, symObjAddr: 0x4E58, symBinAddr: 0x100006D68, symSize: 0x14 }
  - { offsetInCU: 0x2608A, offset: 0x2608A, size: 0x8, addend: 0x0, symName: __ZSt22__uninitialized_copy_aIPKiPiiET0_T_S4_S3_RSaIT1_E, symObjAddr: 0x4E00, symBinAddr: 0x100006D10, symSize: 0x30 }
  - { offsetInCU: 0x26092, offset: 0x26092, size: 0x8, addend: 0x0, symName: __ZN9__gnu_cxx17__normal_iteratorIPKiSt6vectorIiSaIiEEEC1ERKS2_, symObjAddr: 0x4E30, symBinAddr: 0x100006D40, symSize: 0x28 }
  - { offsetInCU: 0x260BA, offset: 0x260BA, size: 0x8, addend: 0x0, symName: __ZNSt12_Vector_baseIiSaIiEE11_M_allocateEm, symObjAddr: 0x4DB0, symBinAddr: 0x100006CC0, symSize: 0x50 }
  - { offsetInCU: 0x260C2, offset: 0x260C2, size: 0x8, addend: 0x0, symName: __ZSt22__uninitialized_copy_aIPKiPiiET0_T_S4_S3_RSaIT1_E, symObjAddr: 0x4E00, symBinAddr: 0x100006D10, symSize: 0x30 }
  - { offsetInCU: 0x261AD, offset: 0x261AD, size: 0x8, addend: 0x0, symName: __ZNKSt16initializer_listIiE4sizeEv, symObjAddr: 0x4D98, symBinAddr: 0x100006CA8, symSize: 0x18 }
  - { offsetInCU: 0x261B5, offset: 0x261B5, size: 0x8, addend: 0x0, symName: __ZNSt12_Vector_baseIiSaIiEE11_M_allocateEm, symObjAddr: 0x4DB0, symBinAddr: 0x100006CC0, symSize: 0x50 }
  - { offsetInCU: 0x26258, offset: 0x26258, size: 0x8, addend: 0x0, symName: __ZSt24__uninitialized_fill_n_aIPimiiET_S1_T0_RKT1_RSaIT2_E, symObjAddr: 0x4D68, symBinAddr: 0x100006C78, symSize: 0x30 }
  - { offsetInCU: 0x26260, offset: 0x26260, size: 0x8, addend: 0x0, symName: __ZNKSt16initializer_listIiE4sizeEv, symObjAddr: 0x4D98, symBinAddr: 0x100006CA8, symSize: 0x18 }
  - { offsetInCU: 0x262AB, offset: 0x262AB, size: 0x8, addend: 0x0, symName: __ZSt8_DestroyIPiEvT_S1_, symObjAddr: 0x4D40, symBinAddr: 0x100006C50, symSize: 0x28 }
  - { offsetInCU: 0x262B3, offset: 0x262B3, size: 0x8, addend: 0x0, symName: __ZSt24__uninitialized_fill_n_aIPimiiET_S1_T0_RKT1_RSaIT2_E, symObjAddr: 0x4D68, symBinAddr: 0x100006C78, symSize: 0x30 }
  - { offsetInCU: 0x26351, offset: 0x26351, size: 0x8, addend: 0x0, symName: __ZSt27__uninitialized_default_n_aIPimiET_S1_T0_RSaIT1_E, symObjAddr: 0x4D18, symBinAddr: 0x100006C28, symSize: 0x28 }
  - { offsetInCU: 0x26359, offset: 0x26359, size: 0x8, addend: 0x0, symName: __ZSt8_DestroyIPiEvT_S1_, symObjAddr: 0x4D40, symBinAddr: 0x100006C50, symSize: 0x28 }
  - { offsetInCU: 0x26361, offset: 0x26361, size: 0x8, addend: 0x0, symName: __ZNSt12_Vector_baseIiSaIiEE17_M_create_storageEm, symObjAddr: 0x4CB8, symBinAddr: 0x100006BC8, symSize: 0x60 }
  - { offsetInCU: 0x26369, offset: 0x26369, size: 0x8, addend: 0x0, symName: __ZSt27__uninitialized_default_n_aIPimiET_S1_T0_RSaIT1_E, symObjAddr: 0x4D18, symBinAddr: 0x100006C28, symSize: 0x28 }
  - { offsetInCU: 0x26400, offset: 0x26400, size: 0x8, addend: 0x0, symName: __ZNSt12_Vector_baseIiSaIiEE12_Vector_implC1ERKS0_, symObjAddr: 0x4C6C, symBinAddr: 0x100006B7C, symSize: 0x4C }
  - { offsetInCU: 0x26408, offset: 0x26408, size: 0x8, addend: 0x0, symName: __ZNSt12_Vector_baseIiSaIiEE17_M_create_storageEm, symObjAddr: 0x4CB8, symBinAddr: 0x100006BC8, symSize: 0x60 }
  - { offsetInCU: 0x26497, offset: 0x26497, size: 0x8, addend: 0x0, symName: __ZNSt6vectorIiSaIiEE11_S_max_sizeERKS0_, symObjAddr: 0x4C18, symBinAddr: 0x100006B28, symSize: 0x54 }
  - { offsetInCU: 0x2649F, offset: 0x2649F, size: 0x8, addend: 0x0, symName: __ZNSt12_Vector_baseIiSaIiEE12_Vector_implC1ERKS0_, symObjAddr: 0x4C6C, symBinAddr: 0x100006B7C, symSize: 0x4C }
  - { offsetInCU: 0x26563, offset: 0x26563, size: 0x8, addend: 0x0, symName: __ZNSt8__detail21_Hash_node_value_baseISt4pairIKi4EdgeEE9_M_valptrEv, symObjAddr: 0x4BFC, symBinAddr: 0x100006B0C, symSize: 0x1C }
  - { offsetInCU: 0x2656B, offset: 0x2656B, size: 0x8, addend: 0x0, symName: __ZNSt6vectorIiSaIiEE11_S_max_sizeERKS0_, symObjAddr: 0x4C18, symBinAddr: 0x100006B28, symSize: 0x54 }
  - { offsetInCU: 0x26592, offset: 0x26592, size: 0x8, addend: 0x0, symName: __ZNKSt8__detail10_Hash_nodeISt4pairIKi4EdgeELb0EE7_M_nextEv, symObjAddr: 0x4BE4, symBinAddr: 0x100006AF4, symSize: 0x18 }
  - { offsetInCU: 0x2659A, offset: 0x2659A, size: 0x8, addend: 0x0, symName: __ZNSt8__detail21_Hash_node_value_baseISt4pairIKi4EdgeEE9_M_valptrEv, symObjAddr: 0x4BFC, symBinAddr: 0x100006B0C, symSize: 0x1C }
  - { offsetInCU: 0x26642, offset: 0x26642, size: 0x8, addend: 0x0, symName: __ZNSt8__detail14_Node_iteratorISt4pairIKi4EdgeELb0ELb0EEC1EPNS_10_Hash_nodeIS4_Lb0EEE, symObjAddr: 0x4BBC, symBinAddr: 0x100006ACC, symSize: 0x28 }
  - { offsetInCU: 0x2664A, offset: 0x2664A, size: 0x8, addend: 0x0, symName: __ZNKSt8__detail10_Hash_nodeISt4pairIKi4EdgeELb0EE7_M_nextEv, symObjAddr: 0x4BE4, symBinAddr: 0x100006AF4, symSize: 0x18 }
  - { offsetInCU: 0x26627, offset: 0x26627, size: 0x8, addend: 0x0, symName: __ZNKSt10_HashtableIiSt4pairIKi4EdgeESaIS3_ENSt8__detail10_Select1stESt8equal_toIiESt4hashIiENS5_18_Mod_range_hashingENS5_20_Default_ranged_hashENS5_20_Prime_rehash_policyENS5_17_Hashtable_traitsILb0ELb0ELb1EEEE8_M_beginEv, symObjAddr: 0x4BA4, symBinAddr: 0x100006AB4, symSize: 0x18 }
  - { offsetInCU: 0x2662F, offset: 0x2662F, size: 0x8, addend: 0x0, symName: __ZNSt8__detail14_Node_iteratorISt4pairIKi4EdgeELb0ELb0EEC1EPNS_10_Hash_nodeIS4_Lb0EEE, symObjAddr: 0x4BBC, symBinAddr: 0x100006ACC, symSize: 0x28 }
  - { offsetInCU: 0x266D9, offset: 0x266D9, size: 0x8, addend: 0x0, symName: __ZSt8_DestroyIPSt13unordered_mapIi4EdgeSt4hashIiESt8equal_toIiESaISt4pairIKiS1_EEEEvT_SC_, symObjAddr: 0x4B7C, symBinAddr: 0x100006A8C, symSize: 0x28 }
  - { offsetInCU: 0x266E1, offset: 0x266E1, size: 0x8, addend: 0x0, symName: __ZNKSt10_HashtableIiSt4pairIKi4EdgeESaIS3_ENSt8__detail10_Select1stESt8equal_toIiESt4hashIiENS5_18_Mod_range_hashingENS5_20_Default_ranged_hashENS5_20_Prime_rehash_policyENS5_17_Hashtable_traitsILb0ELb0ELb1EEEE8_M_beginEv, symObjAddr: 0x4BA4, symBinAddr: 0x100006AB4, symSize: 0x18 }
  - { offsetInCU: 0x2679C, offset: 0x2679C, size: 0x8, addend: 0x0, symName: __ZSt27__uninitialized_default_n_aIPSt13unordered_mapIi4EdgeSt4hashIiESt8equal_toIiESaISt4pairIKiS1_EEEmSA_ET_SC_T0_RSaIT1_E, symObjAddr: 0x4B54, symBinAddr: 0x100006A64, symSize: 0x28 }
  - { offsetInCU: 0x267A4, offset: 0x267A4, size: 0x8, addend: 0x0, symName: __ZSt8_DestroyIPSt13unordered_mapIi4EdgeSt4hashIiESt8equal_toIiESaISt4pairIKiS1_EEEEvT_SC_, symObjAddr: 0x4B7C, symBinAddr: 0x100006A8C, symSize: 0x28 }
  - { offsetInCU: 0x26733, offset: 0x26733, size: 0x8, addend: 0x0, symName: __ZNSt12_Vector_baseISt13unordered_mapIi4EdgeSt4hashIiESt8equal_toIiESaISt4pairIKiS1_EEESaISA_EE13_M_deallocateEPSA_m, symObjAddr: 0x4AFC, symBinAddr: 0x100006A0C, symSize: 0x58 }
  - { offsetInCU: 0x2673B, offset: 0x2673B, size: 0x8, addend: 0x0, symName: __ZSt27__uninitialized_default_n_aIPSt13unordered_mapIi4EdgeSt4hashIiESt8equal_toIiESaISt4pairIKiS1_EEEmSA_ET_SC_T0_RSaIT1_E, symObjAddr: 0x4B54, symBinAddr: 0x100006A64, symSize: 0x28 }
  - { offsetInCU: 0x267C8, offset: 0x267C8, size: 0x8, addend: 0x0, symName: __ZNSt12_Vector_baseISt13unordered_mapIi4EdgeSt4hashIiESt8equal_toIiESaISt4pairIKiS1_EEESaISA_EE17_M_create_storageEm, symObjAddr: 0x4A90, symBinAddr: 0x1000069A0, symSize: 0x6C }
  - { offsetInCU: 0x267D0, offset: 0x267D0, size: 0x8, addend: 0x0, symName: __ZNSt12_Vector_baseISt13unordered_mapIi4EdgeSt4hashIiESt8equal_toIiESaISt4pairIKiS1_EEESaISA_EE13_M_deallocateEPSA_m, symObjAddr: 0x4AFC, symBinAddr: 0x100006A0C, symSize: 0x58 }
  - { offsetInCU: 0x268AB, offset: 0x268AB, size: 0x8, addend: 0x0, symName: __ZNSt12_Vector_baseISt13unordered_mapIi4EdgeSt4hashIiESt8equal_toIiESaISt4pairIKiS1_EEESaISA_EE12_Vector_implC1ERKSB_, symObjAddr: 0x4A44, symBinAddr: 0x100006954, symSize: 0x4C }
  - { offsetInCU: 0x268B3, offset: 0x268B3, size: 0x8, addend: 0x0, symName: __ZNSt12_Vector_baseISt13unordered_mapIi4EdgeSt4hashIiESt8equal_toIiESaISt4pairIKiS1_EEESaISA_EE17_M_create_storageEm, symObjAddr: 0x4A90, symBinAddr: 0x1000069A0, symSize: 0x6C }
  - { offsetInCU: 0x268FE, offset: 0x268FE, size: 0x8, addend: 0x0, symName: __ZNSt6vectorISt13unordered_mapIi4EdgeSt4hashIiESt8equal_toIiESaISt4pairIKiS1_EEESaISA_EE11_S_max_sizeERKSB_, symObjAddr: 0x49D8, symBinAddr: 0x1000068E8, symSize: 0x6C }
  - { offsetInCU: 0x26906, offset: 0x26906, size: 0x8, addend: 0x0, symName: __ZNSt12_Vector_baseISt13unordered_mapIi4EdgeSt4hashIiESt8equal_toIiESaISt4pairIKiS1_EEESaISA_EE12_Vector_implC1ERKSB_, symObjAddr: 0x4A44, symBinAddr: 0x100006954, symSize: 0x4C }
  - { offsetInCU: 0x269FA, offset: 0x269FA, size: 0x8, addend: 0x0, symName: __ZSt8_DestroyIP6VertexEvT_S2_, symObjAddr: 0x49B0, symBinAddr: 0x1000068C0, symSize: 0x28 }
  - { offsetInCU: 0x26A02, offset: 0x26A02, size: 0x8, addend: 0x0, symName: __ZNSt6vectorISt13unordered_mapIi4EdgeSt4hashIiESt8equal_toIiESaISt4pairIKiS1_EEESaISA_EE11_S_max_sizeERKSB_, symObjAddr: 0x49D8, symBinAddr: 0x1000068E8, symSize: 0x6C }
  - { offsetInCU: 0x26AA5, offset: 0x26AA5, size: 0x8, addend: 0x0, symName: __ZSt27__uninitialized_default_n_aIP6VertexmS0_ET_S2_T0_RSaIT1_E, symObjAddr: 0x4988, symBinAddr: 0x100006898, symSize: 0x28 }
  - { offsetInCU: 0x26AAD, offset: 0x26AAD, size: 0x8, addend: 0x0, symName: __ZSt8_DestroyIP6VertexEvT_S2_, symObjAddr: 0x49B0, symBinAddr: 0x1000068C0, symSize: 0x28 }
  - { offsetInCU: 0x26AA7, offset: 0x26AA7, size: 0x8, addend: 0x0, symName: __ZNSt12_Vector_baseI6VertexSaIS0_EE13_M_deallocateEPS0_m, symObjAddr: 0x4930, symBinAddr: 0x100006840, symSize: 0x58 }
  - { offsetInCU: 0x26AAF, offset: 0x26AAF, size: 0x8, addend: 0x0, symName: __ZSt27__uninitialized_default_n_aIP6VertexmS0_ET_S2_T0_RSaIT1_E, symObjAddr: 0x4988, symBinAddr: 0x100006898, symSize: 0x28 }
  - { offsetInCU: 0x26B3C, offset: 0x26B3C, size: 0x8, addend: 0x0, symName: __ZNSt12_Vector_baseI6VertexSaIS0_EE17_M_create_storageEm, symObjAddr: 0x48C4, symBinAddr: 0x1000067D4, symSize: 0x6C }
  - { offsetInCU: 0x26B44, offset: 0x26B44, size: 0x8, addend: 0x0, symName: __ZNSt12_Vector_baseI6VertexSaIS0_EE13_M_deallocateEPS0_m, symObjAddr: 0x4930, symBinAddr: 0x100006840, symSize: 0x58 }
  - { offsetInCU: 0x26BE3, offset: 0x26BE3, size: 0x8, addend: 0x0, symName: __ZNSt12_Vector_baseI6VertexSaIS0_EE12_Vector_implC1ERKS1_, symObjAddr: 0x4878, symBinAddr: 0x100006788, symSize: 0x4C }
  - { offsetInCU: 0x26BEB, offset: 0x26BEB, size: 0x8, addend: 0x0, symName: __ZNSt12_Vector_baseI6VertexSaIS0_EE17_M_create_storageEm, symObjAddr: 0x48C4, symBinAddr: 0x1000067D4, symSize: 0x6C }
  - { offsetInCU: 0x26C72, offset: 0x26C72, size: 0x8, addend: 0x0, symName: __ZNSt6vectorI6VertexSaIS0_EE11_S_max_sizeERKS1_, symObjAddr: 0x481C, symBinAddr: 0x10000672C, symSize: 0x5C }
  - { offsetInCU: 0x26C7A, offset: 0x26C7A, size: 0x8, addend: 0x0, symName: __ZNSt12_Vector_baseI6VertexSaIS0_EE12_Vector_implC1ERKS1_, symObjAddr: 0x4878, symBinAddr: 0x100006788, symSize: 0x4C }
  - { offsetInCU: 0x26D3E, offset: 0x26D3E, size: 0x8, addend: 0x0, symName: __ZNSt8__detail9_Map_baseIiSt4pairIKi4EdgeESaIS4_ENS_10_Select1stESt8equal_toIiESt4hashIiENS_18_Mod_range_hashingENS_20_Default_ranged_hashENS_20_Prime_rehash_policyENS_17_Hashtable_traitsILb0ELb0ELb1EEELb1EEixEOi, symObjAddr: 0x4704, symBinAddr: 0x100006614, symSize: 0x118 }
  - { offsetInCU: 0x26D46, offset: 0x26D46, size: 0x8, addend: 0x0, symName: __ZNSt6vectorI6VertexSaIS0_EE11_S_max_sizeERKS1_, symObjAddr: 0x481C, symBinAddr: 0x10000672C, symSize: 0x5C }
  - { offsetInCU: 0x26E7D, offset: 0x26E7D, size: 0x8, addend: 0x0, symName: __ZSt22__uninitialized_copy_aIPiS0_iET0_T_S2_S1_RSaIT1_E, symObjAddr: 0x46D4, symBinAddr: 0x1000065E4, symSize: 0x30 }
  - { offsetInCU: 0x26E85, offset: 0x26E85, size: 0x8, addend: 0x0, symName: __ZNSt8__detail9_Map_baseIiSt4pairIKi4EdgeESaIS4_ENS_10_Select1stESt8equal_toIiESt4hashIiENS_18_Mod_range_hashingENS_20_Default_ranged_hashENS_20_Prime_rehash_policyENS_17_Hashtable_traitsILb0ELb0ELb1EEELb1EEixEOi, symObjAddr: 0x4704, symBinAddr: 0x100006614, symSize: 0x118 }
  - { offsetInCU: 0x26EE5, offset: 0x26EE5, size: 0x8, addend: 0x0, symName: __ZSt4copyIPiS0_ET0_T_S2_S1_, symObjAddr: 0x468C, symBinAddr: 0x10000659C, symSize: 0x48 }
  - { offsetInCU: 0x26EED, offset: 0x26EED, size: 0x8, addend: 0x0, symName: __ZSt22__uninitialized_copy_aIPiS0_iET0_T_S2_S1_RSaIT1_E, symObjAddr: 0x46D4, symBinAddr: 0x1000065E4, symSize: 0x30 }
  - { offsetInCU: 0x27063, offset: 0x27063, size: 0x8, addend: 0x0, symName: __ZSt4copyIN9__gnu_cxx17__normal_iteratorIPKiSt6vectorIiSaIiEEEENS1_IPiS6_EEET0_T_SB_SA_, symObjAddr: 0x4644, symBinAddr: 0x100006554, symSize: 0x48 }
  - { offsetInCU: 0x2706B, offset: 0x2706B, size: 0x8, addend: 0x0, symName: __ZSt4copyIPiS0_ET0_T_S2_S1_, symObjAddr: 0x468C, symBinAddr: 0x10000659C, symSize: 0x48 }
  - { offsetInCU: 0x2700D, offset: 0x2700D, size: 0x8, addend: 0x0, symName: __ZNSt6vectorIiSaIiEE20_M_allocate_and_copyIN9__gnu_cxx17__normal_iteratorIPKiS1_EEEEPimT_S9_, symObjAddr: 0x45C0, symBinAddr: 0x1000064D0, symSize: 0x84 }
  - { offsetInCU: 0x27015, offset: 0x27015, size: 0x8, addend: 0x0, symName: __ZSt4copyIN9__gnu_cxx17__normal_iteratorIPKiSt6vectorIiSaIiEEEENS1_IPiS6_EEET0_T_SB_SA_, symObjAddr: 0x4644, symBinAddr: 0x100006554, symSize: 0x48 }
  - { offsetInCU: 0x27099, offset: 0x27099, size: 0x8, addend: 0x0, symName: __ZNKSt6vectorIiSaIiEE8capacityEv, symObjAddr: 0x4598, symBinAddr: 0x1000064A8, symSize: 0x28 }
  - { offsetInCU: 0x270A1, offset: 0x270A1, size: 0x8, addend: 0x0, symName: __ZNSt6vectorIiSaIiEE20_M_allocate_and_copyIN9__gnu_cxx17__normal_iteratorIPKiS1_EEEEPimT_S9_, symObjAddr: 0x45C0, symBinAddr: 0x1000064D0, symSize: 0x84 }
  - { offsetInCU: 0x2718A, offset: 0x2718A, size: 0x8, addend: 0x0, symName: __ZSt11__addressofIKSt6vectorIiSaIiEEEPT_RS4_, symObjAddr: 0x4584, symBinAddr: 0x100006494, symSize: 0x14 }
  - { offsetInCU: 0x27192, offset: 0x27192, size: 0x8, addend: 0x0, symName: __ZNKSt6vectorIiSaIiEE8capacityEv, symObjAddr: 0x4598, symBinAddr: 0x1000064A8, symSize: 0x28 }
  - { offsetInCU: 0x2717F, offset: 0x2717F, size: 0x8, addend: 0x0, symName: __ZNSt10_HashtableI6VertexSt4pairIKS0_4EdgeESaIS4_ENSt8__detail10_Select1stESt8equal_toIS0_ESt4hashIS0_ENS6_18_Mod_range_hashingENS6_20_Default_ranged_hashENS6_20_Prime_rehash_policyENS6_17_Hashtable_traitsILb1ELb0ELb1EEEE21_M_deallocate_bucketsEv, symObjAddr: 0x4550, symBinAddr: 0x100006460, symSize: 0x34 }
  - { offsetInCU: 0x27187, offset: 0x27187, size: 0x8, addend: 0x0, symName: __ZSt11__addressofIKSt6vectorIiSaIiEEEPT_RS4_, symObjAddr: 0x4584, symBinAddr: 0x100006494, symSize: 0x14 }
  - { offsetInCU: 0x271AE, offset: 0x271AE, size: 0x8, addend: 0x0, symName: __ZNSt10_HashtableI6VertexSt4pairIKS0_4EdgeESaIS4_ENSt8__detail10_Select1stESt8equal_toIS0_ESt4hashIS0_ENS6_18_Mod_range_hashingENS6_20_Default_ranged_hashENS6_20_Prime_rehash_policyENS6_17_Hashtable_traitsILb1ELb0ELb1EEEE5clearEv, symObjAddr: 0x44EC, symBinAddr: 0x1000063FC, symSize: 0x64 }
  - { offsetInCU: 0x271B6, offset: 0x271B6, size: 0x8, addend: 0x0, symName: __ZNSt10_HashtableI6VertexSt4pairIKS0_4EdgeESaIS4_ENSt8__detail10_Select1stESt8equal_toIS0_ESt4hashIS0_ENS6_18_Mod_range_hashingENS6_20_Default_ranged_hashENS6_20_Prime_rehash_policyENS6_17_Hashtable_traitsILb1ELb0ELb1EEEE21_M_deallocate_bucketsEv, symObjAddr: 0x4550, symBinAddr: 0x100006460, symSize: 0x34 }
  - { offsetInCU: 0x27256, offset: 0x27256, size: 0x8, addend: 0x0, symName: __ZNSt15__new_allocatorINSt8__detail10_Hash_nodeISt4pairIK6Vertex4EdgeELb1EEEED2Ev, symObjAddr: 0x44D8, symBinAddr: 0x1000063E8, symSize: 0x14 }
  - { offsetInCU: 0x2725E, offset: 0x2725E, size: 0x8, addend: 0x0, symName: __ZNSt10_HashtableI6VertexSt4pairIKS0_4EdgeESaIS4_ENSt8__detail10_Select1stESt8equal_toIS0_ESt4hashIS0_ENS6_18_Mod_range_hashingENS6_20_Default_ranged_hashENS6_20_Prime_rehash_policyENS6_17_Hashtable_traitsILb1ELb0ELb1EEEE5clearEv, symObjAddr: 0x44EC, symBinAddr: 0x1000063FC, symSize: 0x64 }
  - { offsetInCU: 0x2724C, offset: 0x2724C, size: 0x8, addend: 0x0, symName: __ZNSt8__detail12_Rehash_baseIiSt4pairIKi4EdgeESaIS4_ENS_10_Select1stESt8equal_toIiESt4hashIiENS_18_Mod_range_hashingENS_20_Default_ranged_hashENS_20_Prime_rehash_policyENS_17_Hashtable_traitsILb0ELb0ELb1EEESt17integral_constantIbLb1EEE7reserveEm, symObjAddr: 0x448C, symBinAddr: 0x10000639C, symSize: 0x4C }
  - { offsetInCU: 0x27254, offset: 0x27254, size: 0x8, addend: 0x0, symName: __ZNSt15__new_allocatorINSt8__detail10_Hash_nodeISt4pairIK6Vertex4EdgeELb1EEEED2Ev, symObjAddr: 0x44D8, symBinAddr: 0x1000063E8, symSize: 0x14 }
  - { offsetInCU: 0x272AD, offset: 0x272AD, size: 0x8, addend: 0x0, symName: __ZNK9__gnu_cxx17__normal_iteratorIP6VertexSt6vectorIS1_SaIS1_EEE4baseEv, symObjAddr: 0x4478, symBinAddr: 0x100006388, symSize: 0x14 }
  - { offsetInCU: 0x272B5, offset: 0x272B5, size: 0x8, addend: 0x0, symName: __ZNSt8__detail12_Rehash_baseIiSt4pairIKi4EdgeESaIS4_ENS_10_Select1stESt8equal_toIiESt4hashIiENS_18_Mod_range_hashingENS_20_Default_ranged_hashENS_20_Prime_rehash_policyENS_17_Hashtable_traitsILb0ELb0ELb1EEESt17integral_constantIbLb1EEE7reserveEm, symObjAddr: 0x448C, symBinAddr: 0x10000639C, symSize: 0x4C }
  - { offsetInCU: 0x2734F, offset: 0x2734F, size: 0x8, addend: 0x0, symName: __ZN9__gnu_cxx17__normal_iteratorIP6VertexSt6vectorIS1_SaIS1_EEEC1ERKS2_, symObjAddr: 0x4450, symBinAddr: 0x100006360, symSize: 0x28 }
  - { offsetInCU: 0x27357, offset: 0x27357, size: 0x8, addend: 0x0, symName: __ZNK9__gnu_cxx17__normal_iteratorIP6VertexSt6vectorIS1_SaIS1_EEE4baseEv, symObjAddr: 0x4478, symBinAddr: 0x100006388, symSize: 0x14 }
  - { offsetInCU: 0x27342, offset: 0x27342, size: 0x8, addend: 0x0, symName: __ZNK9__gnu_cxx17__normal_iteratorIPiSt6vectorIiSaIiEEE4baseEv, symObjAddr: 0x443C, symBinAddr: 0x10000634C, symSize: 0x14 }
  - { offsetInCU: 0x2734A, offset: 0x2734A, size: 0x8, addend: 0x0, symName: __ZN9__gnu_cxx17__normal_iteratorIP6VertexSt6vectorIS1_SaIS1_EEEC1ERKS2_, symObjAddr: 0x4450, symBinAddr: 0x100006360, symSize: 0x28 }
  - { offsetInCU: 0x273DA, offset: 0x273DA, size: 0x8, addend: 0x0, symName: __ZN9__gnu_cxx17__normal_iteratorIPiSt6vectorIiSaIiEEEC1ERKS1_, symObjAddr: 0x4414, symBinAddr: 0x100006324, symSize: 0x28 }
  - { offsetInCU: 0x273E2, offset: 0x273E2, size: 0x8, addend: 0x0, symName: __ZNK9__gnu_cxx17__normal_iteratorIPiSt6vectorIiSaIiEEE4baseEv, symObjAddr: 0x443C, symBinAddr: 0x10000634C, symSize: 0x14 }
  - { offsetInCU: 0x273D7, offset: 0x273D7, size: 0x8, addend: 0x0, symName: __ZNSt5dequeIiSaIiEE8pop_backEv, symObjAddr: 0x4390, symBinAddr: 0x1000062A0, symSize: 0x84 }
  - { offsetInCU: 0x273DF, offset: 0x273DF, size: 0x8, addend: 0x0, symName: __ZN9__gnu_cxx17__normal_iteratorIPiSt6vectorIiSaIiEEEC1ERKS1_, symObjAddr: 0x4414, symBinAddr: 0x100006324, symSize: 0x28 }
  - { offsetInCU: 0x2746A, offset: 0x2746A, size: 0x8, addend: 0x0, symName: __ZNSt5dequeIiSaIiEE4backEv, symObjAddr: 0x435C, symBinAddr: 0x10000626C, symSize: 0x34 }
  - { offsetInCU: 0x27472, offset: 0x27472, size: 0x8, addend: 0x0, symName: __ZNSt5dequeIiSaIiEE8pop_backEv, symObjAddr: 0x4390, symBinAddr: 0x1000062A0, symSize: 0x84 }
  - { offsetInCU: 0x274AD, offset: 0x274AD, size: 0x8, addend: 0x0, symName: __ZNSt6chrono20__duration_cast_implINS_8durationIdSt5ratioILl1ELl1EEEES2_ILl1ELl1000000000EEdLb1ELb0EE6__castIxS5_EES4_RKNS1_IT_T0_EE, symObjAddr: 0x4310, symBinAddr: 0x100006220, symSize: 0x4C }
  - { offsetInCU: 0x274B5, offset: 0x274B5, size: 0x8, addend: 0x0, symName: __ZNSt5dequeIiSaIiEE4backEv, symObjAddr: 0x435C, symBinAddr: 0x10000626C, symSize: 0x34 }
  - { offsetInCU: 0x275E3, offset: 0x275E3, size: 0x8, addend: 0x0, symName: __ZNSt6chronomiIxSt5ratioILl1ELl1000000000EExS2_EENSt11common_typeIJNS_8durationIT_T0_EENS4_IT1_T2_EEEE4typeERKS7_RKSA_, symObjAddr: 0x42AC, symBinAddr: 0x1000061BC, symSize: 0x64 }
  - { offsetInCU: 0x275EB, offset: 0x275EB, size: 0x8, addend: 0x0, symName: __ZNSt6chrono20__duration_cast_implINS_8durationIdSt5ratioILl1ELl1EEEES2_ILl1ELl1000000000EEdLb1ELb0EE6__castIxS5_EES4_RKNS1_IT_T0_EE, symObjAddr: 0x4310, symBinAddr: 0x100006220, symSize: 0x4C }
  - { offsetInCU: 0x275A0, offset: 0x275A0, size: 0x8, addend: 0x0, symName: __ZNKSt6chrono10time_pointINS_3_V212steady_clockENS_8durationIxSt5ratioILl1ELl1000000000EEEEE16time_since_epochEv, symObjAddr: 0x4294, symBinAddr: 0x1000061A4, symSize: 0x18 }
  - { offsetInCU: 0x275A8, offset: 0x275A8, size: 0x8, addend: 0x0, symName: __ZNSt6chronomiIxSt5ratioILl1ELl1000000000EExS2_EENSt11common_typeIJNS_8durationIT_T0_EENS4_IT1_T2_EEEE4typeERKS7_RKSA_, symObjAddr: 0x42AC, symBinAddr: 0x1000061BC, symSize: 0x64 }
  - { offsetInCU: 0x275CF, offset: 0x275CF, size: 0x8, addend: 0x0, symName: __ZNSt5dequeIiSaIiEE9push_backERKi, symObjAddr: 0x41C8, symBinAddr: 0x1000060D8, symSize: 0xCC }
  - { offsetInCU: 0x275D7, offset: 0x275D7, size: 0x8, addend: 0x0, symName: __ZNKSt6chrono10time_pointINS_3_V212steady_clockENS_8durationIxSt5ratioILl1ELl1000000000EEEEE16time_since_epochEv, symObjAddr: 0x4294, symBinAddr: 0x1000061A4, symSize: 0x18 }
  - { offsetInCU: 0x2768E, offset: 0x2768E, size: 0x8, addend: 0x0, symName: __ZNSt6vectorIbSaIbEE5beginEv, symObjAddr: 0x4178, symBinAddr: 0x100006088, symSize: 0x50 }
  - { offsetInCU: 0x27696, offset: 0x27696, size: 0x8, addend: 0x0, symName: __ZNSt5dequeIiSaIiEE9push_backERKi, symObjAddr: 0x41C8, symBinAddr: 0x1000060D8, symSize: 0xCC }
  - { offsetInCU: 0x276BD, offset: 0x276BD, size: 0x8, addend: 0x0, symName: __ZNKSt5dequeIiSaIiEE5emptyEv, symObjAddr: 0x4144, symBinAddr: 0x100006054, symSize: 0x34 }
  - { offsetInCU: 0x276C5, offset: 0x276C5, size: 0x8, addend: 0x0, symName: __ZNSt6vectorIbSaIbEE5beginEv, symObjAddr: 0x4178, symBinAddr: 0x100006088, symSize: 0x50 }
  - { offsetInCU: 0x276EC, offset: 0x276EC, size: 0x8, addend: 0x0, symName: __ZNSt5dequeIiSaIiEE9push_backEOi, symObjAddr: 0x4114, symBinAddr: 0x100006024, symSize: 0x30 }
  - { offsetInCU: 0x276F4, offset: 0x276F4, size: 0x8, addend: 0x0, symName: __ZNKSt5dequeIiSaIiEE5emptyEv, symObjAddr: 0x4144, symBinAddr: 0x100006054, symSize: 0x34 }
  - { offsetInCU: 0x27770, offset: 0x27770, size: 0x8, addend: 0x0, symName: __ZSt4moveIRiEONSt16remove_referenceIT_E4typeEOS2_, symObjAddr: 0x4100, symBinAddr: 0x100006010, symSize: 0x14 }
  - { offsetInCU: 0x27778, offset: 0x27778, size: 0x8, addend: 0x0, symName: __ZNSt5dequeIiSaIiEE9push_backEOi, symObjAddr: 0x4114, symBinAddr: 0x100006024, symSize: 0x30 }
  - { offsetInCU: 0x27784, offset: 0x27784, size: 0x8, addend: 0x0, symName: __ZNSt6vectorIbSaIbEE19_M_initialize_valueEb, symObjAddr: 0x40A4, symBinAddr: 0x100005FB4, symSize: 0x5C }
  - { offsetInCU: 0x2778C, offset: 0x2778C, size: 0x8, addend: 0x0, symName: __ZSt4moveIRiEONSt16remove_referenceIT_E4typeEOS2_, symObjAddr: 0x4100, symBinAddr: 0x100006010, symSize: 0x14 }
  - { offsetInCU: 0x277ED, offset: 0x277ED, size: 0x8, addend: 0x0, symName: __ZNSt6vectorIbSaIbEE13_M_initializeEm, symObjAddr: 0x3FEC, symBinAddr: 0x100005EFC, symSize: 0xB8 }
  - { offsetInCU: 0x277F5, offset: 0x277F5, size: 0x8, addend: 0x0, symName: __ZNSt6vectorIbSaIbEE19_M_initialize_valueEb, symObjAddr: 0x40A4, symBinAddr: 0x100005FB4, symSize: 0x5C }
  - { offsetInCU: 0x278B1, offset: 0x278B1, size: 0x8, addend: 0x0, symName: __ZNSt13_Bvector_baseISaIbEED2Ev, symObjAddr: 0x3FC4, symBinAddr: 0x100005ED4, symSize: 0x28 }
  - { offsetInCU: 0x278B9, offset: 0x278B9, size: 0x8, addend: 0x0, symName: __ZNSt6vectorIbSaIbEE13_M_initializeEm, symObjAddr: 0x3FEC, symBinAddr: 0x100005EFC, symSize: 0xB8 }
  - { offsetInCU: 0x2790F, offset: 0x2790F, size: 0x8, addend: 0x0, symName: __ZNSt13_Bvector_baseISaIbEEC2ERKS0_, symObjAddr: 0x3F70, symBinAddr: 0x100005E80, symSize: 0x54 }
  - { offsetInCU: 0x27917, offset: 0x27917, size: 0x8, addend: 0x0, symName: __ZNSt13_Bvector_baseISaIbEED2Ev, symObjAddr: 0x3FC4, symBinAddr: 0x100005ED4, symSize: 0x28 }
  - { offsetInCU: 0x279F9, offset: 0x279F9, size: 0x8, addend: 0x0, symName: __ZNSt13_Bvector_baseISaIbEE13_Bvector_implD1Ev, symObjAddr: 0x3F44, symBinAddr: 0x100005E54, symSize: 0x2C }
  - { offsetInCU: 0x27A01, offset: 0x27A01, size: 0x8, addend: 0x0, symName: __ZNSt13_Bvector_baseISaIbEEC2ERKS0_, symObjAddr: 0x3F70, symBinAddr: 0x100005E80, symSize: 0x54 }
  - { offsetInCU: 0x27A64, offset: 0x27A64, size: 0x8, addend: 0x0, symName: __ZNSt15__new_allocatorIbED2Ev, symObjAddr: 0x3F30, symBinAddr: 0x100005E40, symSize: 0x14 }
  - { offsetInCU: 0x27A6C, offset: 0x27A6C, size: 0x8, addend: 0x0, symName: __ZNSt13_Bvector_baseISaIbEE13_Bvector_implD1Ev, symObjAddr: 0x3F44, symBinAddr: 0x100005E54, symSize: 0x2C }
  - { offsetInCU: 0x27A8E, offset: 0x27A8E, size: 0x8, addend: 0x0, symName: __ZNSt5dequeIiSaIiEE15_M_destroy_dataESt15_Deque_iteratorIiRiPiES5_RKS0_, symObjAddr: 0x3F10, symBinAddr: 0x100005E20, symSize: 0x20 }
  - { offsetInCU: 0x27A96, offset: 0x27A96, size: 0x8, addend: 0x0, symName: __ZNSt15__new_allocatorIbED2Ev, symObjAddr: 0x3F30, symBinAddr: 0x100005E40, symSize: 0x14 }
  - { offsetInCU: 0x27AF8, offset: 0x27AF8, size: 0x8, addend: 0x0, symName: __ZNSt11_Deque_baseIiSaIiEE19_M_get_Tp_allocatorEv, symObjAddr: 0x3EFC, symBinAddr: 0x100005E0C, symSize: 0x14 }
  - { offsetInCU: 0x27B00, offset: 0x27B00, size: 0x8, addend: 0x0, symName: __ZNSt5dequeIiSaIiEE15_M_destroy_dataESt15_Deque_iteratorIiRiPiES5_RKS0_, symObjAddr: 0x3F10, symBinAddr: 0x100005E20, symSize: 0x20 }
  - { offsetInCU: 0x27B27, offset: 0x27B27, size: 0x8, addend: 0x0, symName: __ZNSt5dequeIiSaIiEE3endEv, symObjAddr: 0x3EC4, symBinAddr: 0x100005DD4, symSize: 0x38 }
  - { offsetInCU: 0x27B2F, offset: 0x27B2F, size: 0x8, addend: 0x0, symName: __ZNSt11_Deque_baseIiSaIiEE19_M_get_Tp_allocatorEv, symObjAddr: 0x3EFC, symBinAddr: 0x100005E0C, symSize: 0x14 }
  - { offsetInCU: 0x27B56, offset: 0x27B56, size: 0x8, addend: 0x0, symName: __ZNSt5dequeIiSaIiEE5beginEv, symObjAddr: 0x3E8C, symBinAddr: 0x100005D9C, symSize: 0x38 }
  - { offsetInCU: 0x27B5E, offset: 0x27B5E, size: 0x8, addend: 0x0, symName: __ZNSt5dequeIiSaIiEE3endEv, symObjAddr: 0x3EC4, symBinAddr: 0x100005DD4, symSize: 0x38 }
  - { offsetInCU: 0x27BCB, offset: 0x27BCB, size: 0x8, addend: 0x0, symName: __ZNSt11_Deque_baseIiSaIiEED2Ev, symObjAddr: 0x3E20, symBinAddr: 0x100005D30, symSize: 0x6C }
  - { offsetInCU: 0x27BD3, offset: 0x27BD3, size: 0x8, addend: 0x0, symName: __ZNSt5dequeIiSaIiEE5beginEv, symObjAddr: 0x3E8C, symBinAddr: 0x100005D9C, symSize: 0x38 }
  - { offsetInCU: 0x27C13, offset: 0x27C13, size: 0x8, addend: 0x0, symName: __ZNSt11_Deque_baseIiSaIiEEC2Ev, symObjAddr: 0x3DD8, symBinAddr: 0x100005CE8, symSize: 0x48 }
  - { offsetInCU: 0x27C1B, offset: 0x27C1B, size: 0x8, addend: 0x0, symName: __ZNSt11_Deque_baseIiSaIiEED2Ev, symObjAddr: 0x3E20, symBinAddr: 0x100005D30, symSize: 0x6C }
  - { offsetInCU: 0x27C7B, offset: 0x27C7B, size: 0x8, addend: 0x0, symName: __ZNSt11_Deque_baseIiSaIiEE11_Deque_implD1Ev, symObjAddr: 0x3DAC, symBinAddr: 0x100005CBC, symSize: 0x2C }
  - { offsetInCU: 0x27C83, offset: 0x27C83, size: 0x8, addend: 0x0, symName: __ZNSt11_Deque_baseIiSaIiEEC2Ev, symObjAddr: 0x3DD8, symBinAddr: 0x100005CE8, symSize: 0x48 }
  - { offsetInCU: 0x27CA4, offset: 0x27CA4, size: 0x8, addend: 0x0, symName: __ZNSt8__detail9_Map_baseIiSt4pairIKi4EdgeESaIS4_ENS_10_Select1stESt8equal_toIiESt4hashIiENS_18_Mod_range_hashingENS_20_Default_ranged_hashENS_20_Prime_rehash_policyENS_17_Hashtable_traitsILb0ELb0ELb1EEELb1EEixERS2_, symObjAddr: 0x3CA4, symBinAddr: 0x100005BB4, symSize: 0x108 }
  - { offsetInCU: 0x27CAC, offset: 0x27CAC, size: 0x8, addend: 0x0, symName: __ZNSt11_Deque_baseIiSaIiEE11_Deque_implD1Ev, symObjAddr: 0x3DAC, symBinAddr: 0x100005CBC, symSize: 0x2C }
  - { offsetInCU: 0x27D74, offset: 0x27D74, size: 0x8, addend: 0x0, symName: __ZNSt6vectorIiSaIiEE17_M_default_appendEm, symObjAddr: 0x3AA4, symBinAddr: 0x1000059B4, symSize: 0x200 }
  - { offsetInCU: 0x27D7C, offset: 0x27D7C, size: 0x8, addend: 0x0, symName: __ZNSt8__detail9_Map_baseIiSt4pairIKi4EdgeESaIS4_ENS_10_Select1stESt8equal_toIiESt4hashIiENS_18_Mod_range_hashingENS_20_Default_ranged_hashENS_20_Prime_rehash_policyENS_17_Hashtable_traitsILb0ELb0ELb1EEELb1EEixERS2_, symObjAddr: 0x3CA4, symBinAddr: 0x100005BB4, symSize: 0x108 }
  - { offsetInCU: 0x27E53, offset: 0x27E53, size: 0x8, addend: 0x0, symName: __ZNSt6vectorIiSaIiEE17_M_realloc_insertIJRKiEEEvN9__gnu_cxx17__normal_iteratorIPiS1_EEDpOT_, symObjAddr: 0x38E4, symBinAddr: 0x1000057F4, symSize: 0x1C0 }
  - { offsetInCU: 0x27E5B, offset: 0x27E5B, size: 0x8, addend: 0x0, symName: __ZNSt6vectorIiSaIiEE17_M_default_appendEm, symObjAddr: 0x3AA4, symBinAddr: 0x1000059B4, symSize: 0x200 }
  - { offsetInCU: 0x280DD, offset: 0x280DD, size: 0x8, addend: 0x0, symName: __ZSt22__uninitialized_copy_aIN9__gnu_cxx17__normal_iteratorIPKiSt6vectorIiSaIiEEEEPiiET0_T_SA_S9_RSaIT1_E, symObjAddr: 0x38B4, symBinAddr: 0x1000057C4, symSize: 0x30 }
  - { offsetInCU: 0x280E5, offset: 0x280E5, size: 0x8, addend: 0x0, symName: __ZNSt6vectorIiSaIiEE17_M_realloc_insertIJRKiEEEvN9__gnu_cxx17__normal_iteratorIPiS1_EEDpOT_, symObjAddr: 0x38E4, symBinAddr: 0x1000057F4, symSize: 0x1C0 }
  - { offsetInCU: 0x280C6, offset: 0x280C6, size: 0x8, addend: 0x0, symName: __ZNKSt12_Vector_baseIiSaIiEE19_M_get_Tp_allocatorEv, symObjAddr: 0x38A0, symBinAddr: 0x1000057B0, symSize: 0x14 }
  - { offsetInCU: 0x280CE, offset: 0x280CE, size: 0x8, addend: 0x0, symName: __ZSt22__uninitialized_copy_aIN9__gnu_cxx17__normal_iteratorIPKiSt6vectorIiSaIiEEEEPiiET0_T_SA_S9_RSaIT1_E, symObjAddr: 0x38B4, symBinAddr: 0x1000057C4, symSize: 0x30 }
  - { offsetInCU: 0x280F5, offset: 0x280F5, size: 0x8, addend: 0x0, symName: __ZNSt12_Vector_baseIiSaIiEE13_M_deallocateEPim, symObjAddr: 0x3848, symBinAddr: 0x100005758, symSize: 0x58 }
  - { offsetInCU: 0x280FD, offset: 0x280FD, size: 0x8, addend: 0x0, symName: __ZNKSt12_Vector_baseIiSaIiEE19_M_get_Tp_allocatorEv, symObjAddr: 0x38A0, symBinAddr: 0x1000057B0, symSize: 0x14 }
  - { offsetInCU: 0x281D6, offset: 0x281D6, size: 0x8, addend: 0x0, symName: __ZNSt12_Vector_baseIiSaIiEE17_Vector_impl_dataC2Ev, symObjAddr: 0x381C, symBinAddr: 0x10000572C, symSize: 0x2C }
  - { offsetInCU: 0x281DE, offset: 0x281DE, size: 0x8, addend: 0x0, symName: __ZNSt12_Vector_baseIiSaIiEE13_M_deallocateEPim, symObjAddr: 0x3848, symBinAddr: 0x100005758, symSize: 0x58 }
  - { offsetInCU: 0x2824C, offset: 0x2824C, size: 0x8, addend: 0x0, symName: __ZN9__gnu_cxxeqIPKiSt6vectorIiSaIiEEEEbRKNS_17__normal_iteratorIT_T0_EESB_, symObjAddr: 0x37D8, symBinAddr: 0x1000056E8, symSize: 0x44 }
  - { offsetInCU: 0x28254, offset: 0x28254, size: 0x8, addend: 0x0, symName: __ZNSt12_Vector_baseIiSaIiEE17_Vector_impl_dataC2Ev, symObjAddr: 0x381C, symBinAddr: 0x10000572C, symSize: 0x2C }
  - { offsetInCU: 0x28249, offset: 0x28249, size: 0x8, addend: 0x0, symName: __ZNKSt6vectorIiSaIiEE3endEv, symObjAddr: 0x37B0, symBinAddr: 0x1000056C0, symSize: 0x28 }
  - { offsetInCU: 0x28251, offset: 0x28251, size: 0x8, addend: 0x0, symName: __ZN9__gnu_cxxeqIPKiSt6vectorIiSaIiEEEEbRKNS_17__normal_iteratorIT_T0_EESB_, symObjAddr: 0x37D8, symBinAddr: 0x1000056E8, symSize: 0x44 }
  - { offsetInCU: 0x28278, offset: 0x28278, size: 0x8, addend: 0x0, symName: __ZNKSt6vectorIiSaIiEE5beginEv, symObjAddr: 0x378C, symBinAddr: 0x10000569C, symSize: 0x24 }
  - { offsetInCU: 0x28280, offset: 0x28280, size: 0x8, addend: 0x0, symName: __ZNKSt6vectorIiSaIiEE3endEv, symObjAddr: 0x37B0, symBinAddr: 0x1000056C0, symSize: 0x28 }
  - { offsetInCU: 0x282A7, offset: 0x282A7, size: 0x8, addend: 0x0, symName: __ZNSt6vectorIiSaIiEE19_M_range_initializeIPKiEEvT_S5_St20forward_iterator_tag, symObjAddr: 0x36A8, symBinAddr: 0x1000055B8, symSize: 0xE4 }
  - { offsetInCU: 0x282AF, offset: 0x282AF, size: 0x8, addend: 0x0, symName: __ZNKSt6vectorIiSaIiEE5beginEv, symObjAddr: 0x378C, symBinAddr: 0x10000569C, symSize: 0x24 }
  - { offsetInCU: 0x28408, offset: 0x28408, size: 0x8, addend: 0x0, symName: __ZNKSt16initializer_listIiE3endEv, symObjAddr: 0x3670, symBinAddr: 0x100005580, symSize: 0x38 }
  - { offsetInCU: 0x28410, offset: 0x28410, size: 0x8, addend: 0x0, symName: __ZNSt6vectorIiSaIiEE19_M_range_initializeIPKiEEvT_S5_St20forward_iterator_tag, symObjAddr: 0x36A8, symBinAddr: 0x1000055B8, symSize: 0xE4 }
  - { offsetInCU: 0x28437, offset: 0x28437, size: 0x8, addend: 0x0, symName: __ZNKSt16initializer_listIiE5beginEv, symObjAddr: 0x3658, symBinAddr: 0x100005568, symSize: 0x18 }
  - { offsetInCU: 0x2843F, offset: 0x2843F, size: 0x8, addend: 0x0, symName: __ZNKSt16initializer_listIiE3endEv, symObjAddr: 0x3670, symBinAddr: 0x100005580, symSize: 0x38 }
  - { offsetInCU: 0x284B5, offset: 0x284B5, size: 0x8, addend: 0x0, symName: __ZNSt12_Vector_baseIiSaIiEEC2ERKS0_, symObjAddr: 0x3630, symBinAddr: 0x100005540, symSize: 0x28 }
  - { offsetInCU: 0x284BD, offset: 0x284BD, size: 0x8, addend: 0x0, symName: __ZNKSt16initializer_listIiE5beginEv, symObjAddr: 0x3658, symBinAddr: 0x100005568, symSize: 0x18 }
  - { offsetInCU: 0x284CC, offset: 0x284CC, size: 0x8, addend: 0x0, symName: __ZNSt6vectorIiSaIiEE18_M_fill_initializeEmRKi, symObjAddr: 0x35D8, symBinAddr: 0x1000054E8, symSize: 0x58 }
  - { offsetInCU: 0x284D4, offset: 0x284D4, size: 0x8, addend: 0x0, symName: __ZNSt12_Vector_baseIiSaIiEEC2ERKS0_, symObjAddr: 0x3630, symBinAddr: 0x100005540, symSize: 0x28 }
  - { offsetInCU: 0x2857B, offset: 0x2857B, size: 0x8, addend: 0x0, symName: __ZNSt12_Vector_baseIiSaIiEE19_M_get_Tp_allocatorEv, symObjAddr: 0x35C4, symBinAddr: 0x1000054D4, symSize: 0x14 }
  - { offsetInCU: 0x28583, offset: 0x28583, size: 0x8, addend: 0x0, symName: __ZNSt6vectorIiSaIiEE18_M_fill_initializeEmRKi, symObjAddr: 0x35D8, symBinAddr: 0x1000054E8, symSize: 0x58 }
  - { offsetInCU: 0x2860C, offset: 0x2860C, size: 0x8, addend: 0x0, symName: __ZNSt12_Vector_baseIiSaIiEEC2EmRKS0_, symObjAddr: 0x3570, symBinAddr: 0x100005480, symSize: 0x54 }
  - { offsetInCU: 0x28614, offset: 0x28614, size: 0x8, addend: 0x0, symName: __ZNSt12_Vector_baseIiSaIiEE19_M_get_Tp_allocatorEv, symObjAddr: 0x35C4, symBinAddr: 0x1000054D4, symSize: 0x14 }
  - { offsetInCU: 0x2862E, offset: 0x2862E, size: 0x8, addend: 0x0, symName: __ZNSt6vectorIiSaIiEE17_S_check_init_lenEmRKS0_, symObjAddr: 0x34EC, symBinAddr: 0x1000053FC, symSize: 0x84 }
  - { offsetInCU: 0x28636, offset: 0x28636, size: 0x8, addend: 0x0, symName: __ZNSt12_Vector_baseIiSaIiEEC2EmRKS0_, symObjAddr: 0x3570, symBinAddr: 0x100005480, symSize: 0x54 }
  - { offsetInCU: 0x2873D, offset: 0x2873D, size: 0x8, addend: 0x0, symName: __ZNSt15__new_allocatorIiED2Ev, symObjAddr: 0x34D8, symBinAddr: 0x1000053E8, symSize: 0x14 }
  - { offsetInCU: 0x28745, offset: 0x28745, size: 0x8, addend: 0x0, symName: __ZNSt6vectorIiSaIiEE17_S_check_init_lenEmRKS0_, symObjAddr: 0x34EC, symBinAddr: 0x1000053FC, symSize: 0x84 }
  - { offsetInCU: 0x28767, offset: 0x28767, size: 0x8, addend: 0x0, symName: __ZNSt8__detail21_Hash_node_value_baseISt4pairIKi4EdgeEE4_M_vEv, symObjAddr: 0x34BC, symBinAddr: 0x1000053CC, symSize: 0x1C }
  - { offsetInCU: 0x2876F, offset: 0x2876F, size: 0x8, addend: 0x0, symName: __ZNSt15__new_allocatorIiED2Ev, symObjAddr: 0x34D8, symBinAddr: 0x1000053E8, symSize: 0x14 }
  - { offsetInCU: 0x28796, offset: 0x28796, size: 0x8, addend: 0x0, symName: __ZNSt8__detail19_Node_iterator_baseISt4pairIKi4EdgeELb0EE7_M_incrEv, symObjAddr: 0x348C, symBinAddr: 0x10000539C, symSize: 0x30 }
  - { offsetInCU: 0x2879E, offset: 0x2879E, size: 0x8, addend: 0x0, symName: __ZNSt8__detail21_Hash_node_value_baseISt4pairIKi4EdgeEE4_M_vEv, symObjAddr: 0x34BC, symBinAddr: 0x1000053CC, symSize: 0x1C }
  - { offsetInCU: 0x287C5, offset: 0x287C5, size: 0x8, addend: 0x0, symName: __ZNSt10_HashtableIiSt4pairIKi4EdgeESaIS3_ENSt8__detail10_Select1stESt8equal_toIiESt4hashIiENS5_18_Mod_range_hashingENS5_20_Default_ranged_hashENS5_20_Prime_rehash_policyENS5_17_Hashtable_traitsILb0ELb0ELb1EEEE3endEv, symObjAddr: 0x3468, symBinAddr: 0x100005378, symSize: 0x24 }
  - { offsetInCU: 0x287CD, offset: 0x287CD, size: 0x8, addend: 0x0, symName: __ZNSt8__detail19_Node_iterator_baseISt4pairIKi4EdgeELb0EE7_M_incrEv, symObjAddr: 0x348C, symBinAddr: 0x10000539C, symSize: 0x30 }
  - { offsetInCU: 0x287F4, offset: 0x287F4, size: 0x8, addend: 0x0, symName: __ZNSt10_HashtableIiSt4pairIKi4EdgeESaIS3_ENSt8__detail10_Select1stESt8equal_toIiESt4hashIiENS5_18_Mod_range_hashingENS5_20_Default_ranged_hashENS5_20_Prime_rehash_policyENS5_17_Hashtable_traitsILb0ELb0ELb1EEEE5beginEv, symObjAddr: 0x343C, symBinAddr: 0x10000534C, symSize: 0x2C }
  - { offsetInCU: 0x287FC, offset: 0x287FC, size: 0x8, addend: 0x0, symName: __ZNSt10_HashtableIiSt4pairIKi4EdgeESaIS3_ENSt8__detail10_Select1stESt8equal_toIiESt4hashIiENS5_18_Mod_range_hashingENS5_20_Default_ranged_hashENS5_20_Prime_rehash_policyENS5_17_Hashtable_traitsILb0ELb0ELb1EEEE3endEv, symObjAddr: 0x3468, symBinAddr: 0x100005378, symSize: 0x24 }
  - { offsetInCU: 0x2887B, offset: 0x2887B, size: 0x8, addend: 0x0, symName: __ZNSt12_Vector_baseISt13unordered_mapIi4EdgeSt4hashIiESt8equal_toIiESaISt4pairIKiS1_EEESaISA_EE19_M_get_Tp_allocatorEv, symObjAddr: 0x3428, symBinAddr: 0x100005338, symSize: 0x14 }
  - { offsetInCU: 0x28883, offset: 0x28883, size: 0x8, addend: 0x0, symName: __ZNSt10_HashtableIiSt4pairIKi4EdgeESaIS3_ENSt8__detail10_Select1stESt8equal_toIiESt4hashIiENS5_18_Mod_range_hashingENS5_20_Default_ranged_hashENS5_20_Prime_rehash_policyENS5_17_Hashtable_traitsILb0ELb0ELb1EEEE5beginEv, symObjAddr: 0x343C, symBinAddr: 0x10000534C, symSize: 0x2C }
  - { offsetInCU: 0x288AA, offset: 0x288AA, size: 0x8, addend: 0x0, symName: __ZNSt6vectorISt13unordered_mapIi4EdgeSt4hashIiESt8equal_toIiESaISt4pairIKiS1_EEESaISA_EE21_M_default_initializeEm, symObjAddr: 0x33D8, symBinAddr: 0x1000052E8, symSize: 0x50 }
  - { offsetInCU: 0x288B2, offset: 0x288B2, size: 0x8, addend: 0x0, symName: __ZNSt12_Vector_baseISt13unordered_mapIi4EdgeSt4hashIiESt8equal_toIiESaISt4pairIKiS1_EEESaISA_EE19_M_get_Tp_allocatorEv, symObjAddr: 0x3428, symBinAddr: 0x100005338, symSize: 0x14 }
  - { offsetInCU: 0x28978, offset: 0x28978, size: 0x8, addend: 0x0, symName: __ZNSt12_Vector_baseISt13unordered_mapIi4EdgeSt4hashIiESt8equal_toIiESaISt4pairIKiS1_EEESaISA_EED2Ev, symObjAddr: 0x3374, symBinAddr: 0x100005284, symSize: 0x64 }
  - { offsetInCU: 0x28980, offset: 0x28980, size: 0x8, addend: 0x0, symName: __ZNSt6vectorISt13unordered_mapIi4EdgeSt4hashIiESt8equal_toIiESaISt4pairIKiS1_EEESaISA_EE21_M_default_initializeEm, symObjAddr: 0x33D8, symBinAddr: 0x1000052E8, symSize: 0x50 }
  - { offsetInCU: 0x289E9, offset: 0x289E9, size: 0x8, addend: 0x0, symName: __ZNSt12_Vector_baseISt13unordered_mapIi4EdgeSt4hashIiESt8equal_toIiESaISt4pairIKiS1_EEESaISA_EEC2EmRKSB_, symObjAddr: 0x3320, symBinAddr: 0x100005230, symSize: 0x54 }
  - { offsetInCU: 0x289F1, offset: 0x289F1, size: 0x8, addend: 0x0, symName: __ZNSt12_Vector_baseISt13unordered_mapIi4EdgeSt4hashIiESt8equal_toIiESaISt4pairIKiS1_EEESaISA_EED2Ev, symObjAddr: 0x3374, symBinAddr: 0x100005284, symSize: 0x64 }
  - { offsetInCU: 0x28A64, offset: 0x28A64, size: 0x8, addend: 0x0, symName: __ZNSt12_Vector_baseISt13unordered_mapIi4EdgeSt4hashIiESt8equal_toIiESaISt4pairIKiS1_EEESaISA_EE12_Vector_implD1Ev, symObjAddr: 0x32F4, symBinAddr: 0x100005204, symSize: 0x2C }
  - { offsetInCU: 0x28A6C, offset: 0x28A6C, size: 0x8, addend: 0x0, symName: __ZNSt12_Vector_baseISt13unordered_mapIi4EdgeSt4hashIiESt8equal_toIiESaISt4pairIKiS1_EEESaISA_EEC2EmRKSB_, symObjAddr: 0x3320, symBinAddr: 0x100005230, symSize: 0x54 }
  - { offsetInCU: 0x28A47, offset: 0x28A47, size: 0x8, addend: 0x0, symName: __ZNSt6vectorISt13unordered_mapIi4EdgeSt4hashIiESt8equal_toIiESaISt4pairIKiS1_EEESaISA_EE17_S_check_init_lenEmRKSB_, symObjAddr: 0x3270, symBinAddr: 0x100005180, symSize: 0x84 }
  - { offsetInCU: 0x28A4F, offset: 0x28A4F, size: 0x8, addend: 0x0, symName: __ZNSt12_Vector_baseISt13unordered_mapIi4EdgeSt4hashIiESt8equal_toIiESaISt4pairIKiS1_EEESaISA_EE12_Vector_implD1Ev, symObjAddr: 0x32F4, symBinAddr: 0x100005204, symSize: 0x2C }
  - { offsetInCU: 0x28B98, offset: 0x28B98, size: 0x8, addend: 0x0, symName: __ZNSt15__new_allocatorISt13unordered_mapIi4EdgeSt4hashIiESt8equal_toIiESaISt4pairIKiS1_EEEED2Ev, symObjAddr: 0x325C, symBinAddr: 0x10000516C, symSize: 0x14 }
  - { offsetInCU: 0x28BA0, offset: 0x28BA0, size: 0x8, addend: 0x0, symName: __ZNSt6vectorISt13unordered_mapIi4EdgeSt4hashIiESt8equal_toIiESaISt4pairIKiS1_EEESaISA_EE17_S_check_init_lenEmRKSB_, symObjAddr: 0x3270, symBinAddr: 0x100005180, symSize: 0x84 }
  - { offsetInCU: 0x28BD8, offset: 0x28BD8, size: 0x8, addend: 0x0, symName: __ZNSt12_Vector_baseI6VertexSaIS0_EE19_M_get_Tp_allocatorEv, symObjAddr: 0x3248, symBinAddr: 0x100005158, symSize: 0x14 }
  - { offsetInCU: 0x28BE0, offset: 0x28BE0, size: 0x8, addend: 0x0, symName: __ZNSt15__new_allocatorISt13unordered_mapIi4EdgeSt4hashIiESt8equal_toIiESaISt4pairIKiS1_EEEED2Ev, symObjAddr: 0x325C, symBinAddr: 0x10000516C, symSize: 0x14 }
  - { offsetInCU: 0x28C07, offset: 0x28C07, size: 0x8, addend: 0x0, symName: __ZNSt6vectorI6VertexSaIS0_EE21_M_default_initializeEm, symObjAddr: 0x31F8, symBinAddr: 0x100005108, symSize: 0x50 }
  - { offsetInCU: 0x28C0F, offset: 0x28C0F, size: 0x8, addend: 0x0, symName: __ZNSt12_Vector_baseI6VertexSaIS0_EE19_M_get_Tp_allocatorEv, symObjAddr: 0x3248, symBinAddr: 0x100005158, symSize: 0x14 }
  - { offsetInCU: 0x28C99, offset: 0x28C99, size: 0x8, addend: 0x0, symName: __ZNSt12_Vector_baseI6VertexSaIS0_EED2Ev, symObjAddr: 0x319C, symBinAddr: 0x1000050AC, symSize: 0x5C }
  - { offsetInCU: 0x28CA1, offset: 0x28CA1, size: 0x8, addend: 0x0, symName: __ZNSt6vectorI6VertexSaIS0_EE21_M_default_initializeEm, symObjAddr: 0x31F8, symBinAddr: 0x100005108, symSize: 0x50 }
  - { offsetInCU: 0x28D0A, offset: 0x28D0A, size: 0x8, addend: 0x0, symName: __ZNSt12_Vector_baseI6VertexSaIS0_EEC2EmRKS1_, symObjAddr: 0x3148, symBinAddr: 0x100005058, symSize: 0x54 }
  - { offsetInCU: 0x28D12, offset: 0x28D12, size: 0x8, addend: 0x0, symName: __ZNSt12_Vector_baseI6VertexSaIS0_EED2Ev, symObjAddr: 0x319C, symBinAddr: 0x1000050AC, symSize: 0x5C }
  - { offsetInCU: 0x28D85, offset: 0x28D85, size: 0x8, addend: 0x0, symName: __ZNSt12_Vector_baseI6VertexSaIS0_EE12_Vector_implD1Ev, symObjAddr: 0x311C, symBinAddr: 0x10000502C, symSize: 0x2C }
  - { offsetInCU: 0x28D8D, offset: 0x28D8D, size: 0x8, addend: 0x0, symName: __ZNSt12_Vector_baseI6VertexSaIS0_EEC2EmRKS1_, symObjAddr: 0x3148, symBinAddr: 0x100005058, symSize: 0x54 }
  - { offsetInCU: 0x28DA4, offset: 0x28DA4, size: 0x8, addend: 0x0, symName: __ZNSt6vectorI6VertexSaIS0_EE17_S_check_init_lenEmRKS1_, symObjAddr: 0x3098, symBinAddr: 0x100004FA8, symSize: 0x84 }
  - { offsetInCU: 0x28DAC, offset: 0x28DAC, size: 0x8, addend: 0x0, symName: __ZNSt12_Vector_baseI6VertexSaIS0_EE12_Vector_implD1Ev, symObjAddr: 0x311C, symBinAddr: 0x10000502C, symSize: 0x2C }
  - { offsetInCU: 0x28EB9, offset: 0x28EB9, size: 0x8, addend: 0x0, symName: __ZNSt15__new_allocatorI6VertexED2Ev, symObjAddr: 0x3084, symBinAddr: 0x100004F94, symSize: 0x14 }
  - { offsetInCU: 0x28EC1, offset: 0x28EC1, size: 0x8, addend: 0x0, symName: __ZNSt6vectorI6VertexSaIS0_EE17_S_check_init_lenEmRKS1_, symObjAddr: 0x3098, symBinAddr: 0x100004FA8, symSize: 0x84 }
  - { offsetInCU: 0x28EDD, offset: 0x28EDD, size: 0x8, addend: 0x0, symName: __ZNSt6vectorIiSaIiEE15_M_erase_at_endEPi, symObjAddr: 0x2FFC, symBinAddr: 0x100004F0C, symSize: 0x88 }
  - { offsetInCU: 0x28EE5, offset: 0x28EE5, size: 0x8, addend: 0x0, symName: __ZNSt15__new_allocatorI6VertexED2Ev, symObjAddr: 0x3084, symBinAddr: 0x100004F94, symSize: 0x14 }
  - { offsetInCU: 0x28FC9, offset: 0x28FC9, size: 0x8, addend: 0x0, symName: __ZSt7forwardIiEOT_RNSt16remove_referenceIS0_E4typeE, symObjAddr: 0x2FE8, symBinAddr: 0x100004EF8, symSize: 0x14 }
  - { offsetInCU: 0x28FD1, offset: 0x28FD1, size: 0x8, addend: 0x0, symName: __ZNSt6vectorIiSaIiEE15_M_erase_at_endEPi, symObjAddr: 0x2FFC, symBinAddr: 0x100004F0C, symSize: 0x88 }
  - { offsetInCU: 0x28FD9, offset: 0x28FD9, size: 0x8, addend: 0x0, symName: __ZNSt13unordered_mapIi4EdgeSt4hashIiESt8equal_toIiESaISt4pairIKiS0_EEEixEOi, symObjAddr: 0x2FB0, symBinAddr: 0x100004EC0, symSize: 0x38 }
  - { offsetInCU: 0x28FE1, offset: 0x28FE1, size: 0x8, addend: 0x0, symName: __ZSt7forwardIiEOT_RNSt16remove_referenceIS0_E4typeE, symObjAddr: 0x2FE8, symBinAddr: 0x100004EF8, symSize: 0x14 }
  - { offsetInCU: 0x2903F, offset: 0x2903F, size: 0x8, addend: 0x0, symName: __ZSt3minIiERKT_S2_S2_, symObjAddr: 0x2F78, symBinAddr: 0x100004E88, symSize: 0x38 }
  - { offsetInCU: 0x29047, offset: 0x29047, size: 0x8, addend: 0x0, symName: __ZNSt13unordered_mapIi4EdgeSt4hashIiESt8equal_toIiESaISt4pairIKiS0_EEEixEOi, symObjAddr: 0x2FB0, symBinAddr: 0x100004EC0, symSize: 0x38 }
  - { offsetInCU: 0x2907A, offset: 0x2907A, size: 0x8, addend: 0x0, symName: __ZNSt6vectorIiSaIiEEaSERKS1_, symObjAddr: 0x2C30, symBinAddr: 0x100004B40, symSize: 0x348 }
  - { offsetInCU: 0x29082, offset: 0x29082, size: 0x8, addend: 0x0, symName: __ZSt3minIiERKT_S2_S2_, symObjAddr: 0x2F78, symBinAddr: 0x100004E88, symSize: 0x38 }
  - { offsetInCU: 0x2933F, offset: 0x2933F, size: 0x8, addend: 0x0, symName: __ZNSt10_HashtableI6VertexSt4pairIKS0_4EdgeESaIS4_ENSt8__detail10_Select1stESt8equal_toIS0_ESt4hashIS0_ENS6_18_Mod_range_hashingENS6_20_Default_ranged_hashENS6_20_Prime_rehash_policyENS6_17_Hashtable_traitsILb1ELb0ELb1EEEED1Ev, symObjAddr: 0x2C00, symBinAddr: 0x100004B10, symSize: 0x30 }
  - { offsetInCU: 0x29347, offset: 0x29347, size: 0x8, addend: 0x0, symName: __ZNSt6vectorIiSaIiEEaSERKS1_, symObjAddr: 0x2C30, symBinAddr: 0x100004B40, symSize: 0x348 }
  - { offsetInCU: 0x29330, offset: 0x29330, size: 0x8, addend: 0x0, symName: __ZNSt8__detail21_Hashtable_ebo_helperILi0ESaINS_10_Hash_nodeISt4pairIK6Vertex4EdgeELb1EEEELb1EEC2Ev, symObjAddr: 0x2BD4, symBinAddr: 0x100004AE4, symSize: 0x2C }
  - { offsetInCU: 0x29338, offset: 0x29338, size: 0x8, addend: 0x0, symName: __ZNSt10_HashtableI6VertexSt4pairIKS0_4EdgeESaIS4_ENSt8__detail10_Select1stESt8equal_toIS0_ESt4hashIS0_ENS6_18_Mod_range_hashingENS6_20_Default_ranged_hashENS6_20_Prime_rehash_policyENS6_17_Hashtable_traitsILb1ELb0ELb1EEEED1Ev, symObjAddr: 0x2C00, symBinAddr: 0x100004B10, symSize: 0x30 }
  - { offsetInCU: 0x293A8, offset: 0x293A8, size: 0x8, addend: 0x0, symName: __ZNSt8__detail21_Hashtable_ebo_helperILi0ESt8equal_toI6VertexELb1EEC2Ev, symObjAddr: 0x2BC0, symBinAddr: 0x100004AD0, symSize: 0x14 }
  - { offsetInCU: 0x293B0, offset: 0x293B0, size: 0x8, addend: 0x0, symName: __ZNSt8__detail21_Hashtable_ebo_helperILi0ESaINS_10_Hash_nodeISt4pairIK6Vertex4EdgeELb1EEEELb1EEC2Ev, symObjAddr: 0x2BD4, symBinAddr: 0x100004AE4, symSize: 0x2C }
  - { offsetInCU: 0x293EC, offset: 0x293EC, size: 0x8, addend: 0x0, symName: __ZNSt8__detail21_Hashtable_ebo_helperILi1ESt4hashI6VertexELb1EEC2Ev, symObjAddr: 0x2BAC, symBinAddr: 0x100004ABC, symSize: 0x14 }
  - { offsetInCU: 0x293F4, offset: 0x293F4, size: 0x8, addend: 0x0, symName: __ZNSt8__detail21_Hashtable_ebo_helperILi0ESt8equal_toI6VertexELb1EEC2Ev, symObjAddr: 0x2BC0, symBinAddr: 0x100004AD0, symSize: 0x14 }
  - { offsetInCU: 0x293D7, offset: 0x293D7, size: 0x8, addend: 0x0, symName: __ZNSt13unordered_mapIi4EdgeSt4hashIiESt8equal_toIiESaISt4pairIKiS0_EEE7reserveEm, symObjAddr: 0x2B84, symBinAddr: 0x100004A94, symSize: 0x28 }
  - { offsetInCU: 0x293DF, offset: 0x293DF, size: 0x8, addend: 0x0, symName: __ZNSt8__detail21_Hashtable_ebo_helperILi1ESt4hashI6VertexELb1EEC2Ev, symObjAddr: 0x2BAC, symBinAddr: 0x100004ABC, symSize: 0x14 }
  - { offsetInCU: 0x2945C, offset: 0x2945C, size: 0x8, addend: 0x0, symName: __ZNK9__gnu_cxx17__normal_iteratorIP6VertexSt6vectorIS1_SaIS1_EEEdeEv, symObjAddr: 0x2B6C, symBinAddr: 0x100004A7C, symSize: 0x18 }
  - { offsetInCU: 0x29464, offset: 0x29464, size: 0x8, addend: 0x0, symName: __ZNSt13unordered_mapIi4EdgeSt4hashIiESt8equal_toIiESaISt4pairIKiS0_EEE7reserveEm, symObjAddr: 0x2B84, symBinAddr: 0x100004A94, symSize: 0x28 }
  - { offsetInCU: 0x2948B, offset: 0x2948B, size: 0x8, addend: 0x0, symName: __ZN9__gnu_cxx17__normal_iteratorIP6VertexSt6vectorIS1_SaIS1_EEEppEv, symObjAddr: 0x2B44, symBinAddr: 0x100004A54, symSize: 0x28 }
  - { offsetInCU: 0x29493, offset: 0x29493, size: 0x8, addend: 0x0, symName: __ZNK9__gnu_cxx17__normal_iteratorIP6VertexSt6vectorIS1_SaIS1_EEEdeEv, symObjAddr: 0x2B6C, symBinAddr: 0x100004A7C, symSize: 0x18 }
  - { offsetInCU: 0x2953D, offset: 0x2953D, size: 0x8, addend: 0x0, symName: __ZN9__gnu_cxxneIP6VertexSt6vectorIS1_SaIS1_EEEEbRKNS_17__normal_iteratorIT_T0_EESB_, symObjAddr: 0x2B00, symBinAddr: 0x100004A10, symSize: 0x44 }
  - { offsetInCU: 0x29545, offset: 0x29545, size: 0x8, addend: 0x0, symName: __ZN9__gnu_cxx17__normal_iteratorIP6VertexSt6vectorIS1_SaIS1_EEEppEv, symObjAddr: 0x2B44, symBinAddr: 0x100004A54, symSize: 0x28 }
  - { offsetInCU: 0x29531, offset: 0x29531, size: 0x8, addend: 0x0, symName: __ZNSt6vectorI6VertexSaIS0_EE3endEv, symObjAddr: 0x2AD8, symBinAddr: 0x1000049E8, symSize: 0x28 }
  - { offsetInCU: 0x29539, offset: 0x29539, size: 0x8, addend: 0x0, symName: __ZN9__gnu_cxxneIP6VertexSt6vectorIS1_SaIS1_EEEEbRKNS_17__normal_iteratorIT_T0_EESB_, symObjAddr: 0x2B00, symBinAddr: 0x100004A10, symSize: 0x44 }
  - { offsetInCU: 0x29560, offset: 0x29560, size: 0x8, addend: 0x0, symName: __ZNSt6vectorI6VertexSaIS0_EE5beginEv, symObjAddr: 0x2AB4, symBinAddr: 0x1000049C4, symSize: 0x24 }
  - { offsetInCU: 0x29568, offset: 0x29568, size: 0x8, addend: 0x0, symName: __ZNSt6vectorI6VertexSaIS0_EE3endEv, symObjAddr: 0x2AD8, symBinAddr: 0x1000049E8, symSize: 0x28 }
  - { offsetInCU: 0x2958F, offset: 0x2958F, size: 0x8, addend: 0x0, symName: __ZNSt6vectorIiSaIiEE3endEv, symObjAddr: 0x2A8C, symBinAddr: 0x10000499C, symSize: 0x28 }
  - { offsetInCU: 0x29597, offset: 0x29597, size: 0x8, addend: 0x0, symName: __ZNSt6vectorI6VertexSaIS0_EE5beginEv, symObjAddr: 0x2AB4, symBinAddr: 0x1000049C4, symSize: 0x24 }
  - { offsetInCU: 0x295BE, offset: 0x295BE, size: 0x8, addend: 0x0, symName: __ZNSt6vectorIiSaIiEE5beginEv, symObjAddr: 0x2A68, symBinAddr: 0x100004978, symSize: 0x24 }
  - { offsetInCU: 0x295C6, offset: 0x295C6, size: 0x8, addend: 0x0, symName: __ZNSt6vectorIiSaIiEE3endEv, symObjAddr: 0x2A8C, symBinAddr: 0x10000499C, symSize: 0x28 }
  - { offsetInCU: 0x295ED, offset: 0x295ED, size: 0x8, addend: 0x0, symName: __ZNSt5stackIiSt5dequeIiSaIiEEE4pushERKi, symObjAddr: 0x2A40, symBinAddr: 0x100004950, symSize: 0x28 }
  - { offsetInCU: 0x295F5, offset: 0x295F5, size: 0x8, addend: 0x0, symName: __ZNSt6vectorIiSaIiEE5beginEv, symObjAddr: 0x2A68, symBinAddr: 0x100004978, symSize: 0x24 }
  - { offsetInCU: 0x29630, offset: 0x29630, size: 0x8, addend: 0x0, symName: __ZNSt5stackIiSt5dequeIiSaIiEEE3popEv, symObjAddr: 0x2A20, symBinAddr: 0x100004930, symSize: 0x20 }
  - { offsetInCU: 0x29638, offset: 0x29638, size: 0x8, addend: 0x0, symName: __ZNSt5stackIiSt5dequeIiSaIiEEE4pushERKi, symObjAddr: 0x2A40, symBinAddr: 0x100004950, symSize: 0x28 }
  - { offsetInCU: 0x2965F, offset: 0x2965F, size: 0x8, addend: 0x0, symName: __ZNSt5stackIiSt5dequeIiSaIiEEE3topEv, symObjAddr: 0x2A04, symBinAddr: 0x100004914, symSize: 0x1C }
  - { offsetInCU: 0x29667, offset: 0x29667, size: 0x8, addend: 0x0, symName: __ZNSt5stackIiSt5dequeIiSaIiEEE3popEv, symObjAddr: 0x2A20, symBinAddr: 0x100004930, symSize: 0x20 }
  - { offsetInCU: 0x2968E, offset: 0x2968E, size: 0x8, addend: 0x0, symName: __ZNKSt5stackIiSt5dequeIiSaIiEEE5emptyEv, symObjAddr: 0x29E4, symBinAddr: 0x1000048F4, symSize: 0x20 }
  - { offsetInCU: 0x29696, offset: 0x29696, size: 0x8, addend: 0x0, symName: __ZNSt5stackIiSt5dequeIiSaIiEEE3topEv, symObjAddr: 0x2A04, symBinAddr: 0x100004914, symSize: 0x1C }
  - { offsetInCU: 0x296BD, offset: 0x296BD, size: 0x8, addend: 0x0, symName: __ZNSt5stackIiSt5dequeIiSaIiEEE4pushEOi, symObjAddr: 0x29A8, symBinAddr: 0x1000048B8, symSize: 0x3C }
  - { offsetInCU: 0x296C5, offset: 0x296C5, size: 0x8, addend: 0x0, symName: __ZNKSt5stackIiSt5dequeIiSaIiEEE5emptyEv, symObjAddr: 0x29E4, symBinAddr: 0x1000048F4, symSize: 0x20 }
  - { offsetInCU: 0x29756, offset: 0x29756, size: 0x8, addend: 0x0, symName: __ZNSt5stackIiSt5dequeIiSaIiEEEC1IS2_vEEv, symObjAddr: 0x2974, symBinAddr: 0x100004884, symSize: 0x34 }
  - { offsetInCU: 0x2975E, offset: 0x2975E, size: 0x8, addend: 0x0, symName: __ZNSt5stackIiSt5dequeIiSaIiEEE4pushEOi, symObjAddr: 0x29A8, symBinAddr: 0x1000048B8, symSize: 0x3C }
  - { offsetInCU: 0x29770, offset: 0x29770, size: 0x8, addend: 0x0, symName: __ZNKSt6chrono8durationIdSt5ratioILl1ELl1EEE5countEv, symObjAddr: 0x295C, symBinAddr: 0x10000486C, symSize: 0x18 }
  - { offsetInCU: 0x29778, offset: 0x29778, size: 0x8, addend: 0x0, symName: __ZNSt5stackIiSt5dequeIiSaIiEEEC1IS2_vEEv, symObjAddr: 0x2974, symBinAddr: 0x100004884, symSize: 0x34 }
  - { offsetInCU: 0x298AC, offset: 0x298AC, size: 0x8, addend: 0x0, symName: __ZNSt6chrono13duration_castINS_8durationIdSt5ratioILl1ELl1EEEExS2_ILl1ELl1000000000EEEENSt9enable_ifIXsrNS_13__is_durationIT_EE5valueES8_E4typeERKNS1_IT0_T1_EE, symObjAddr: 0x2938, symBinAddr: 0x100004848, symSize: 0x24 }
  - { offsetInCU: 0x298B4, offset: 0x298B4, size: 0x8, addend: 0x0, symName: __ZNKSt6chrono8durationIdSt5ratioILl1ELl1EEE5countEv, symObjAddr: 0x295C, symBinAddr: 0x10000486C, symSize: 0x18 }
  - { offsetInCU: 0x29979, offset: 0x29979, size: 0x8, addend: 0x0, symName: __ZNSt6chronomiINS_3_V212steady_clockENS_8durationIxSt5ratioILl1ELl1000000000EEEES6_EENSt11common_typeIJT0_T1_EE4typeERKNS_10time_pointIT_S8_EERKNSC_ISD_S9_EE, symObjAddr: 0x28FC, symBinAddr: 0x10000480C, symSize: 0x3C }
  - { offsetInCU: 0x29981, offset: 0x29981, size: 0x8, addend: 0x0, symName: __ZNSt6chrono13duration_castINS_8durationIdSt5ratioILl1ELl1EEEExS2_ILl1ELl1000000000EEEENSt9enable_ifIXsrNS_13__is_durationIT_EE5valueES8_E4typeERKNS1_IT0_T1_EE, symObjAddr: 0x2938, symBinAddr: 0x100004848, symSize: 0x24 }
  - { offsetInCU: 0x298AB, offset: 0x298AB, size: 0x8, addend: 0x0, symName: __ZNSt6vectorIbSaIbEEixEm, symObjAddr: 0x28CC, symBinAddr: 0x1000047DC, symSize: 0x30 }
  - { offsetInCU: 0x298B3, offset: 0x298B3, size: 0x8, addend: 0x0, symName: __ZNSt6chronomiINS_3_V212steady_clockENS_8durationIxSt5ratioILl1ELl1000000000EEEES6_EENSt11common_typeIJT0_T1_EE4typeERKNS_10time_pointIT_S8_EERKNSC_ISD_S9_EE, symObjAddr: 0x28FC, symBinAddr: 0x10000480C, symSize: 0x3C }
  - { offsetInCU: 0x2992E, offset: 0x2992E, size: 0x8, addend: 0x0, symName: __ZNSt6vectorIbSaIbEED1Ev, symObjAddr: 0x28AC, symBinAddr: 0x1000047BC, symSize: 0x20 }
  - { offsetInCU: 0x29936, offset: 0x29936, size: 0x8, addend: 0x0, symName: __ZNSt6vectorIbSaIbEEixEm, symObjAddr: 0x28CC, symBinAddr: 0x1000047DC, symSize: 0x30 }
  - { offsetInCU: 0x299B4, offset: 0x299B4, size: 0x8, addend: 0x0, symName: __ZNSt6vectorIbSaIbEEC1EmRKbRKS0_, symObjAddr: 0x2840, symBinAddr: 0x100004750, symSize: 0x6C }
  - { offsetInCU: 0x299BC, offset: 0x299BC, size: 0x8, addend: 0x0, symName: __ZNSt6vectorIbSaIbEED1Ev, symObjAddr: 0x28AC, symBinAddr: 0x1000047BC, symSize: 0x20 }
  - { offsetInCU: 0x29A65, offset: 0x29A65, size: 0x8, addend: 0x0, symName: __ZNSt5dequeIiSaIiEED1Ev, symObjAddr: 0x27D8, symBinAddr: 0x1000046E8, symSize: 0x68 }
  - { offsetInCU: 0x29A6D, offset: 0x29A6D, size: 0x8, addend: 0x0, symName: __ZNSt6vectorIbSaIbEEC1EmRKbRKS0_, symObjAddr: 0x2840, symBinAddr: 0x100004750, symSize: 0x6C }
  - { offsetInCU: 0x29AAE, offset: 0x29AAE, size: 0x8, addend: 0x0, symName: __ZNSt5dequeIiSaIiEEC1Ev, symObjAddr: 0x27B8, symBinAddr: 0x1000046C8, symSize: 0x20 }
  - { offsetInCU: 0x29AB6, offset: 0x29AB6, size: 0x8, addend: 0x0, symName: __ZNSt5dequeIiSaIiEED1Ev, symObjAddr: 0x27D8, symBinAddr: 0x1000046E8, symSize: 0x68 }
  - { offsetInCU: 0x29AC5, offset: 0x29AC5, size: 0x8, addend: 0x0, symName: __ZNSt13unordered_mapIi4EdgeSt4hashIiESt8equal_toIiESaISt4pairIKiS0_EEEixERS6_, symObjAddr: 0x2794, symBinAddr: 0x1000046A4, symSize: 0x24 }
  - { offsetInCU: 0x29ACD, offset: 0x29ACD, size: 0x8, addend: 0x0, symName: __ZNSt5dequeIiSaIiEEC1Ev, symObjAddr: 0x27B8, symBinAddr: 0x1000046C8, symSize: 0x20 }
  - { offsetInCU: 0x29B08, offset: 0x29B08, size: 0x8, addend: 0x0, symName: __ZNSt6vectorIiSaIiEE6resizeEm, symObjAddr: 0x26E4, symBinAddr: 0x1000045F4, symSize: 0xB0 }
  - { offsetInCU: 0x29B10, offset: 0x29B10, size: 0x8, addend: 0x0, symName: __ZNSt13unordered_mapIi4EdgeSt4hashIiESt8equal_toIiESaISt4pairIKiS0_EEEixERS6_, symObjAddr: 0x2794, symBinAddr: 0x1000046A4, symSize: 0x24 }
  - { offsetInCU: 0x29B4B, offset: 0x29B4B, size: 0x8, addend: 0x0, symName: __ZNSt6vectorIiSaIiEE9push_backERKi, symObjAddr: 0x2610, symBinAddr: 0x100004520, symSize: 0xD4 }
  - { offsetInCU: 0x29B53, offset: 0x29B53, size: 0x8, addend: 0x0, symName: __ZNSt6vectorIiSaIiEE6resizeEm, symObjAddr: 0x26E4, symBinAddr: 0x1000045F4, symSize: 0xB0 }
  - { offsetInCU: 0x29C52, offset: 0x29C52, size: 0x8, addend: 0x0, symName: __ZNSt6vectorIiSaIiEEC1ERKS1_, symObjAddr: 0x24FC, symBinAddr: 0x10000440C, symSize: 0x114 }
  - { offsetInCU: 0x29C5A, offset: 0x29C5A, size: 0x8, addend: 0x0, symName: __ZNSt6vectorIiSaIiEE9push_backERKi, symObjAddr: 0x2610, symBinAddr: 0x100004520, symSize: 0xD4 }
  - { offsetInCU: 0x29D68, offset: 0x29D68, size: 0x8, addend: 0x0, symName: __ZNKSt6vectorIiSaIiEE4sizeEv, symObjAddr: 0x24D4, symBinAddr: 0x1000043E4, symSize: 0x28 }
  - { offsetInCU: 0x29D70, offset: 0x29D70, size: 0x8, addend: 0x0, symName: __ZNSt6vectorIiSaIiEEC1ERKS1_, symObjAddr: 0x24FC, symBinAddr: 0x10000440C, symSize: 0x114 }
  - { offsetInCU: 0x29DDE, offset: 0x29DDE, size: 0x8, addend: 0x0, symName: __ZNSt12_Vector_baseIiSaIiEED2Ev, symObjAddr: 0x2484, symBinAddr: 0x100004394, symSize: 0x50 }
  - { offsetInCU: 0x29DE6, offset: 0x29DE6, size: 0x8, addend: 0x0, symName: __ZNKSt6vectorIiSaIiEE4sizeEv, symObjAddr: 0x24D4, symBinAddr: 0x1000043E4, symSize: 0x28 }
  - { offsetInCU: 0x29E34, offset: 0x29E34, size: 0x8, addend: 0x0, symName: __ZNSt12_Vector_baseIiSaIiEE12_Vector_implC1Ev, symObjAddr: 0x244C, symBinAddr: 0x10000435C, symSize: 0x38 }
  - { offsetInCU: 0x29E3C, offset: 0x29E3C, size: 0x8, addend: 0x0, symName: __ZNSt12_Vector_baseIiSaIiEED2Ev, symObjAddr: 0x2484, symBinAddr: 0x100004394, symSize: 0x50 }
  - { offsetInCU: 0x29E81, offset: 0x29E81, size: 0x8, addend: 0x0, symName: __ZNKSt6vectorIiSaIiEE5emptyEv, symObjAddr: 0x2410, symBinAddr: 0x100004320, symSize: 0x3C }
  - { offsetInCU: 0x29E89, offset: 0x29E89, size: 0x8, addend: 0x0, symName: __ZNSt12_Vector_baseIiSaIiEE12_Vector_implC1Ev, symObjAddr: 0x244C, symBinAddr: 0x10000435C, symSize: 0x38 }
  - { offsetInCU: 0x29F21, offset: 0x29F21, size: 0x8, addend: 0x0, symName: __ZNSt6vectorIiSaIiEEC1ESt16initializer_listIiERKS0_, symObjAddr: 0x23A0, symBinAddr: 0x1000042B0, symSize: 0x70 }
  - { offsetInCU: 0x29F29, offset: 0x29F29, size: 0x8, addend: 0x0, symName: __ZNKSt6vectorIiSaIiEE5emptyEv, symObjAddr: 0x2410, symBinAddr: 0x100004320, symSize: 0x3C }
  - { offsetInCU: 0x29FA4, offset: 0x29FA4, size: 0x8, addend: 0x0, symName: __ZNSt6vectorIiSaIiEEC1EmRKiRKS0_, symObjAddr: 0x2330, symBinAddr: 0x100004240, symSize: 0x70 }
  - { offsetInCU: 0x29FAC, offset: 0x29FAC, size: 0x8, addend: 0x0, symName: __ZNSt6vectorIiSaIiEEC1ESt16initializer_listIiERKS0_, symObjAddr: 0x23A0, symBinAddr: 0x1000042B0, symSize: 0x70 }
  - { offsetInCU: 0x29FD6, offset: 0x29FD6, size: 0x8, addend: 0x0, symName: __ZNSt6vectorIiSaIiEEixEm, symObjAddr: 0x2308, symBinAddr: 0x100004218, symSize: 0x28 }
  - { offsetInCU: 0x29FDE, offset: 0x29FDE, size: 0x8, addend: 0x0, symName: __ZNSt6vectorIiSaIiEEC1EmRKiRKS0_, symObjAddr: 0x2330, symBinAddr: 0x100004240, symSize: 0x70 }
  - { offsetInCU: 0x2A059, offset: 0x2A059, size: 0x8, addend: 0x0, symName: __ZNSt6vectorIiSaIiEED1Ev, symObjAddr: 0x22AC, symBinAddr: 0x1000041BC, symSize: 0x5C }
  - { offsetInCU: 0x2A061, offset: 0x2A061, size: 0x8, addend: 0x0, symName: __ZNSt6vectorIiSaIiEEixEm, symObjAddr: 0x2308, symBinAddr: 0x100004218, symSize: 0x28 }
  - { offsetInCU: 0x2A111, offset: 0x2A111, size: 0x8, addend: 0x0, symName: __ZSt3maxIiERKT_S2_S2_, symObjAddr: 0x2274, symBinAddr: 0x100004184, symSize: 0x38 }
  - { offsetInCU: 0x2A119, offset: 0x2A119, size: 0x8, addend: 0x0, symName: __ZNSt6vectorIiSaIiEED1Ev, symObjAddr: 0x22AC, symBinAddr: 0x1000041BC, symSize: 0x5C }
  - { offsetInCU: 0x2A14D, offset: 0x2A14D, size: 0x8, addend: 0x0, symName: __ZNKSt8__detail14_Node_iteratorISt4pairIKi4EdgeELb0ELb0EEdeEv, symObjAddr: 0x2250, symBinAddr: 0x100004160, symSize: 0x24 }
  - { offsetInCU: 0x2A155, offset: 0x2A155, size: 0x8, addend: 0x0, symName: __ZSt3maxIiERKT_S2_S2_, symObjAddr: 0x2274, symBinAddr: 0x100004184, symSize: 0x38 }
  - { offsetInCU: 0x2A17C, offset: 0x2A17C, size: 0x8, addend: 0x0, symName: __ZNSt8__detail14_Node_iteratorISt4pairIKi4EdgeELb0ELb0EEppEv, symObjAddr: 0x2230, symBinAddr: 0x100004140, symSize: 0x20 }
  - { offsetInCU: 0x2A184, offset: 0x2A184, size: 0x8, addend: 0x0, symName: __ZNKSt8__detail14_Node_iteratorISt4pairIKi4EdgeELb0ELb0EEdeEv, symObjAddr: 0x2250, symBinAddr: 0x100004160, symSize: 0x24 }
  - { offsetInCU: 0x2A1FA, offset: 0x2A1FA, size: 0x8, addend: 0x0, symName: __ZNSt8__detailneERKNS_19_Node_iterator_baseISt4pairIKi4EdgeELb0EEES7_, symObjAddr: 0x2200, symBinAddr: 0x100004110, symSize: 0x30 }
  - { offsetInCU: 0x2A202, offset: 0x2A202, size: 0x8, addend: 0x0, symName: __ZNSt8__detail14_Node_iteratorISt4pairIKi4EdgeELb0ELb0EEppEv, symObjAddr: 0x2230, symBinAddr: 0x100004140, symSize: 0x20 }
  - { offsetInCU: 0x2A208, offset: 0x2A208, size: 0x8, addend: 0x0, symName: __ZNSt13unordered_mapIi4EdgeSt4hashIiESt8equal_toIiESaISt4pairIKiS0_EEE3endEv, symObjAddr: 0x21E4, symBinAddr: 0x1000040F4, symSize: 0x1C }
  - { offsetInCU: 0x2A210, offset: 0x2A210, size: 0x8, addend: 0x0, symName: __ZNSt8__detailneERKNS_19_Node_iterator_baseISt4pairIKi4EdgeELb0EEES7_, symObjAddr: 0x2200, symBinAddr: 0x100004110, symSize: 0x30 }
  - { offsetInCU: 0x2A237, offset: 0x2A237, size: 0x8, addend: 0x0, symName: __ZNSt13unordered_mapIi4EdgeSt4hashIiESt8equal_toIiESaISt4pairIKiS0_EEE5beginEv, symObjAddr: 0x21C8, symBinAddr: 0x1000040D8, symSize: 0x1C }
  - { offsetInCU: 0x2A23F, offset: 0x2A23F, size: 0x8, addend: 0x0, symName: __ZNSt13unordered_mapIi4EdgeSt4hashIiESt8equal_toIiESaISt4pairIKiS0_EEE3endEv, symObjAddr: 0x21E4, symBinAddr: 0x1000040F4, symSize: 0x1C }
  - { offsetInCU: 0x2A266, offset: 0x2A266, size: 0x8, addend: 0x0, symName: __ZNSt6vectorISt13unordered_mapIi4EdgeSt4hashIiESt8equal_toIiESaISt4pairIKiS1_EEESaISA_EEixEm, symObjAddr: 0x2194, symBinAddr: 0x1000040A4, symSize: 0x34 }
  - { offsetInCU: 0x2A26E, offset: 0x2A26E, size: 0x8, addend: 0x0, symName: __ZNSt13unordered_mapIi4EdgeSt4hashIiESt8equal_toIiESaISt4pairIKiS0_EEE5beginEv, symObjAddr: 0x21C8, symBinAddr: 0x1000040D8, symSize: 0x1C }
  - { offsetInCU: 0x2A2A9, offset: 0x2A2A9, size: 0x8, addend: 0x0, symName: __ZNKSt6vectorI6VertexSaIS0_EE4sizeEv, symObjAddr: 0x2160, symBinAddr: 0x100004070, symSize: 0x34 }
  - { offsetInCU: 0x2A2B1, offset: 0x2A2B1, size: 0x8, addend: 0x0, symName: __ZNSt6vectorISt13unordered_mapIi4EdgeSt4hashIiESt8equal_toIiESaISt4pairIKiS1_EEESaISA_EEixEm, symObjAddr: 0x2194, symBinAddr: 0x1000040A4, symSize: 0x34 }
  - { offsetInCU: 0x2A2D8, offset: 0x2A2D8, size: 0x8, addend: 0x0, symName: __ZNSt6vectorI6VertexSaIS0_EEixEm, symObjAddr: 0x212C, symBinAddr: 0x10000403C, symSize: 0x34 }
  - { offsetInCU: 0x2A2E0, offset: 0x2A2E0, size: 0x8, addend: 0x0, symName: __ZNKSt6vectorI6VertexSaIS0_EE4sizeEv, symObjAddr: 0x2160, symBinAddr: 0x100004070, symSize: 0x34 }
  - { offsetInCU: 0x2A39F, offset: 0x2A39F, size: 0x8, addend: 0x0, symName: __ZNSt6vectorISt13unordered_mapIi4EdgeSt4hashIiESt8equal_toIiESaISt4pairIKiS1_EEESaISA_EED1Ev, symObjAddr: 0x20D0, symBinAddr: 0x100003FE0, symSize: 0x5C }
  - { offsetInCU: 0x2A3A7, offset: 0x2A3A7, size: 0x8, addend: 0x0, symName: __ZNSt6vectorI6VertexSaIS0_EEixEm, symObjAddr: 0x212C, symBinAddr: 0x10000403C, symSize: 0x34 }
  - { offsetInCU: 0x2A44E, offset: 0x2A44E, size: 0x8, addend: 0x0, symName: __ZNSt6vectorISt13unordered_mapIi4EdgeSt4hashIiESt8equal_toIiESaISt4pairIKiS1_EEESaISA_EEC1EmRKSB_, symObjAddr: 0x2068, symBinAddr: 0x100003F78, symSize: 0x68 }
  - { offsetInCU: 0x2A456, offset: 0x2A456, size: 0x8, addend: 0x0, symName: __ZNSt6vectorISt13unordered_mapIi4EdgeSt4hashIiESt8equal_toIiESaISt4pairIKiS1_EEESaISA_EED1Ev, symObjAddr: 0x20D0, symBinAddr: 0x100003FE0, symSize: 0x5C }
  - { offsetInCU: 0x2A4BB, offset: 0x2A4BB, size: 0x8, addend: 0x0, symName: __ZNSt6vectorI6VertexSaIS0_EED1Ev, symObjAddr: 0x200C, symBinAddr: 0x100003F1C, symSize: 0x5C }
  - { offsetInCU: 0x2A4C3, offset: 0x2A4C3, size: 0x8, addend: 0x0, symName: __ZNSt6vectorISt13unordered_mapIi4EdgeSt4hashIiESt8equal_toIiESaISt4pairIKiS1_EEESaISA_EEC1EmRKSB_, symObjAddr: 0x2068, symBinAddr: 0x100003F78, symSize: 0x68 }
  - { offsetInCU: 0x2A56A, offset: 0x2A56A, size: 0x8, addend: 0x0, symName: __ZNSt6vectorI6VertexSaIS0_EEC1EmRKS1_, symObjAddr: 0x1FA4, symBinAddr: 0x100003EB4, symSize: 0x68 }
  - { offsetInCU: 0x2A572, offset: 0x2A572, size: 0x8, addend: 0x0, symName: __ZNSt6vectorI6VertexSaIS0_EED1Ev, symObjAddr: 0x200C, symBinAddr: 0x100003F1C, symSize: 0x5C }
  - { offsetInCU: 0x2A5CB, offset: 0x2A5CB, size: 0x8, addend: 0x0, symName: __ZNSt6vectorIiSaIiEE5clearEv, symObjAddr: 0x1F78, symBinAddr: 0x100003E88, symSize: 0x2C }
  - { offsetInCU: 0x2A5D3, offset: 0x2A5D3, size: 0x8, addend: 0x0, symName: __ZNSt6vectorI6VertexSaIS0_EEC1EmRKS1_, symObjAddr: 0x1FA4, symBinAddr: 0x100003EB4, symSize: 0x68 }
  - { offsetInCU: 0x2A62C, offset: 0x2A62C, size: 0x8, addend: 0x0, symName: __ZSt3maxImERKT_S2_S2_, symObjAddr: 0x1F40, symBinAddr: 0x100003E50, symSize: 0x38 }
  - { offsetInCU: 0x2A634, offset: 0x2A634, size: 0x8, addend: 0x0, symName: __ZNSt6vectorIiSaIiEE5clearEv, symObjAddr: 0x1F78, symBinAddr: 0x100003E88, symSize: 0x2C }
  - { offsetInCU: 0x2A665, offset: 0x2A665, size: 0x8, addend: 0x0, symName: _main, symObjAddr: 0x1718, symBinAddr: 0x100003628, symSize: 0x828 }
  - { offsetInCU: 0x2A66D, offset: 0x2A66D, size: 0x8, addend: 0x0, symName: __ZSt3maxImERKT_S2_S2_, symObjAddr: 0x1F40, symBinAddr: 0x100003E50, symSize: 0x38 }
  - { offsetInCU: 0x2A9F4, offset: 0x2A9F4, size: 0x8, addend: 0x0, symName: __ZN6VertexaSERKS_, symObjAddr: 0x16A8, symBinAddr: 0x1000035B8, symSize: 0x70 }
  - { offsetInCU: 0x2A9FC, offset: 0x2A9FC, size: 0x8, addend: 0x0, symName: _main, symObjAddr: 0x1718, symBinAddr: 0x100003628, symSize: 0x828 }
  - { offsetInCU: 0x2AA68, offset: 0x2AA68, size: 0x8, addend: 0x0, symName: __ZN6VertexC1ERKS_, symObjAddr: 0x1630, symBinAddr: 0x100003540, symSize: 0x78 }
  - { offsetInCU: 0x2AA70, offset: 0x2AA70, size: 0x8, addend: 0x0, symName: __ZN6VertexaSERKS_, symObjAddr: 0x16A8, symBinAddr: 0x1000035B8, symSize: 0x70 }
  - { offsetInCU: 0x2AB13, offset: 0x2AB13, size: 0x8, addend: 0x0, symName: __ZNSt13unordered_mapI6Vertex4EdgeSt4hashIS0_ESt8equal_toIS0_ESaISt4pairIKS0_S1_EEED1Ev, symObjAddr: 0x1610, symBinAddr: 0x100003520, symSize: 0x20 }
  - { offsetInCU: 0x2AB1B, offset: 0x2AB1B, size: 0x8, addend: 0x0, symName: __ZN6VertexC1ERKS_, symObjAddr: 0x1630, symBinAddr: 0x100003540, symSize: 0x78 }
  - { offsetInCU: 0x2AB5B, offset: 0x2AB5B, size: 0x8, addend: 0x0, symName: __ZNSt13unordered_mapI6Vertex4EdgeSt4hashIS0_ESt8equal_toIS0_ESaISt4pairIKS0_S1_EEEC1Ev, symObjAddr: 0x15F0, symBinAddr: 0x100003500, symSize: 0x20 }
  - { offsetInCU: 0x2AB63, offset: 0x2AB63, size: 0x8, addend: 0x0, symName: __ZNSt13unordered_mapI6Vertex4EdgeSt4hashIS0_ESt8equal_toIS0_ESaISt4pairIKS0_S1_EEED1Ev, symObjAddr: 0x1610, symBinAddr: 0x100003520, symSize: 0x20 }
  - { offsetInCU: 0x2AC2E, offset: 0x2AC2E, size: 0x8, addend: 0x0, symName: __ZNSt10_HashtableI6VertexSt4pairIKS0_4EdgeESaIS4_ENSt8__detail10_Select1stESt8equal_toIS0_ESt4hashIS0_ENS6_18_Mod_range_hashingENS6_20_Default_ranged_hashENS6_20_Prime_rehash_policyENS6_17_Hashtable_traitsILb1ELb0ELb1EEEEC1Ev, symObjAddr: 0x1580, symBinAddr: 0x100003490, symSize: 0x70 }
  - { offsetInCU: 0x2AC36, offset: 0x2AC36, size: 0x8, addend: 0x0, symName: __ZNSt13unordered_mapI6Vertex4EdgeSt4hashIS0_ESt8equal_toIS0_ESaISt4pairIKS0_S1_EEEC1Ev, symObjAddr: 0x15F0, symBinAddr: 0x100003500, symSize: 0x20 }
  - { offsetInCU: 0x2ABFE, offset: 0x2ABFE, size: 0x8, addend: 0x0, symName: __ZNSt8__detail16_Hashtable_allocISaINS_10_Hash_nodeISt4pairIK6Vertex4EdgeELb1EEEEED2Ev, symObjAddr: 0x1560, symBinAddr: 0x100003470, symSize: 0x20 }
  - { offsetInCU: 0x2AC06, offset: 0x2AC06, size: 0x8, addend: 0x0, symName: __ZNSt10_HashtableI6VertexSt4pairIKS0_4EdgeESaIS4_ENSt8__detail10_Select1stESt8equal_toIS0_ESt4hashIS0_ENS6_18_Mod_range_hashingENS6_20_Default_ranged_hashENS6_20_Prime_rehash_policyENS6_17_Hashtable_traitsILb1ELb0ELb1EEEEC1Ev, symObjAddr: 0x1580, symBinAddr: 0x100003490, symSize: 0x70 }
  - { offsetInCU: 0x2AC46, offset: 0x2AC46, size: 0x8, addend: 0x0, symName: __ZNSt8__detail16_Hashtable_allocISaINS_10_Hash_nodeISt4pairIK6Vertex4EdgeELb1EEEEEC2Ev, symObjAddr: 0x1540, symBinAddr: 0x100003450, symSize: 0x20 }
  - { offsetInCU: 0x2AC4E, offset: 0x2AC4E, size: 0x8, addend: 0x0, symName: __ZNSt8__detail16_Hashtable_allocISaINS_10_Hash_nodeISt4pairIK6Vertex4EdgeELb1EEEEED2Ev, symObjAddr: 0x1560, symBinAddr: 0x100003470, symSize: 0x20 }
  - { offsetInCU: 0x2ACAE, offset: 0x2ACAE, size: 0x8, addend: 0x0, symName: __ZNSt8__detail21_Hashtable_ebo_helperILi0ESaINS_10_Hash_nodeISt4pairIK6Vertex4EdgeELb1EEEELb1EED2Ev, symObjAddr: 0x1514, symBinAddr: 0x100003424, symSize: 0x2C }
  - { offsetInCU: 0x2ACB6, offset: 0x2ACB6, size: 0x8, addend: 0x0, symName: __ZNSt8__detail16_Hashtable_allocISaINS_10_Hash_nodeISt4pairIK6Vertex4EdgeELb1EEEEEC2Ev, symObjAddr: 0x1540, symBinAddr: 0x100003450, symSize: 0x20 }
  - { offsetInCU: 0x2AD7A, offset: 0x2AD7A, size: 0x8, addend: 0x0, symName: __ZNSt8__detail15_Hashtable_baseI6VertexSt4pairIKS1_4EdgeENS_10_Select1stESt8equal_toIS1_ESt4hashIS1_ENS_18_Mod_range_hashingENS_20_Default_ranged_hashENS_17_Hashtable_traitsILb1ELb0ELb1EEEEC2Ev, symObjAddr: 0x14EC, symBinAddr: 0x1000033FC, symSize: 0x28 }
  - { offsetInCU: 0x2AD82, offset: 0x2AD82, size: 0x8, addend: 0x0, symName: __ZNSt8__detail21_Hashtable_ebo_helperILi0ESaINS_10_Hash_nodeISt4pairIK6Vertex4EdgeELb1EEEELb1EED2Ev, symObjAddr: 0x1514, symBinAddr: 0x100003424, symSize: 0x2C }
  - { offsetInCU: 0x2AD91, offset: 0x2AD91, size: 0x8, addend: 0x0, symName: __ZNSt8__detail15_Hash_code_baseI6VertexSt4pairIKS1_4EdgeENS_10_Select1stESt4hashIS1_ENS_18_Mod_range_hashingENS_20_Default_ranged_hashELb1EEC2Ev, symObjAddr: 0x14CC, symBinAddr: 0x1000033DC, symSize: 0x20 }
  - { offsetInCU: 0x2AD99, offset: 0x2AD99, size: 0x8, addend: 0x0, symName: __ZNSt8__detail15_Hashtable_baseI6VertexSt4pairIKS1_4EdgeENS_10_Select1stESt8equal_toIS1_ESt4hashIS1_ENS_18_Mod_range_hashingENS_20_Default_ranged_hashENS_17_Hashtable_traitsILb1ELb0ELb1EEEEC2Ev, symObjAddr: 0x14EC, symBinAddr: 0x1000033FC, symSize: 0x28 }
  - { offsetInCU: 0x2AD69, offset: 0x2AD69, size: 0x8, addend: 0x0, symName: __ZN6VertexD1Ev, symObjAddr: 0x14A8, symBinAddr: 0x1000033B8, symSize: 0x24 }
  - { offsetInCU: 0x2AD71, offset: 0x2AD71, size: 0x8, addend: 0x0, symName: __ZNSt8__detail15_Hash_code_baseI6VertexSt4pairIKS1_4EdgeENS_10_Select1stESt4hashIS1_ENS_18_Mod_range_hashingENS_20_Default_ranged_hashELb1EEC2Ev, symObjAddr: 0x14CC, symBinAddr: 0x1000033DC, symSize: 0x20 }
  - { offsetInCU: 0x2ADC2, offset: 0x2ADC2, size: 0x8, addend: 0x0, symName: __ZN5GraphD1Ev, symObjAddr: 0x147C, symBinAddr: 0x10000338C, symSize: 0x2C }
  - { offsetInCU: 0x2ADCA, offset: 0x2ADCA, size: 0x8, addend: 0x0, symName: __ZN6VertexD1Ev, symObjAddr: 0x14A8, symBinAddr: 0x1000033B8, symSize: 0x24 }
  - { offsetInCU: 0x2ADE3, offset: 0x2ADE3, size: 0x8, addend: 0x0, symName: __ZN5Graph5resetEv, symObjAddr: 0x1404, symBinAddr: 0x100003314, symSize: 0x78 }
  - { offsetInCU: 0x2ADEB, offset: 0x2ADEB, size: 0x8, addend: 0x0, symName: __ZN5GraphD1Ev, symObjAddr: 0x147C, symBinAddr: 0x10000338C, symSize: 0x2C }
  - { offsetInCU: 0x2AE6B, offset: 0x2AE6B, size: 0x8, addend: 0x0, symName: __ZN5Graph7addEdgeERK6VertexS2_i, symObjAddr: 0x12B4, symBinAddr: 0x1000031C4, symSize: 0x150 }
  - { offsetInCU: 0x2AE73, offset: 0x2AE73, size: 0x8, addend: 0x0, symName: __ZN5Graph5resetEv, symObjAddr: 0x1404, symBinAddr: 0x100003314, symSize: 0x78 }
  - { offsetInCU: 0x2AEEA, offset: 0x2AEEA, size: 0x8, addend: 0x0, symName: __ZN5Graph11dfsDeadEdgeEv, symObjAddr: 0xF48, symBinAddr: 0x100002E58, symSize: 0x36C }
  - { offsetInCU: 0x2AEF2, offset: 0x2AEF2, size: 0x8, addend: 0x0, symName: __ZN5Graph7addEdgeERK6VertexS2_i, symObjAddr: 0x12B4, symBinAddr: 0x1000031C4, symSize: 0x150 }
  - { offsetInCU: 0x2B0ED, offset: 0x2B0ED, size: 0x8, addend: 0x0, symName: __ZNSt5stackIiSt5dequeIiSaIiEEED1Ev, symObjAddr: 0xF28, symBinAddr: 0x100002E38, symSize: 0x20 }
  - { offsetInCU: 0x2B0F5, offset: 0x2B0F5, size: 0x8, addend: 0x0, symName: __ZN5Graph11dfsDeadEdgeEv, symObjAddr: 0xF48, symBinAddr: 0x100002E58, symSize: 0x36C }
  - { offsetInCU: 0x2B0F9, offset: 0x2B0F9, size: 0x8, addend: 0x0, symName: __ZN5Graph9incrementEi, symObjAddr: 0xEE8, symBinAddr: 0x100002DF8, symSize: 0x40 }
  - { offsetInCU: 0x2B101, offset: 0x2B101, size: 0x8, addend: 0x0, symName: __ZNSt5stackIiSt5dequeIiSaIiEEED1Ev, symObjAddr: 0xF28, symBinAddr: 0x100002E38, symSize: 0x20 }
  - { offsetInCU: 0x2B13C, offset: 0x2B13C, size: 0x8, addend: 0x0, symName: __ZN5Graph11visitVertexER6VertexS1_, symObjAddr: 0xDFC, symBinAddr: 0x100002D0C, symSize: 0xEC }
  - { offsetInCU: 0x2B144, offset: 0x2B144, size: 0x8, addend: 0x0, symName: __ZN5Graph9incrementEi, symObjAddr: 0xEE8, symBinAddr: 0x100002DF8, symSize: 0x40 }
  - { offsetInCU: 0x2B193, offset: 0x2B193, size: 0x8, addend: 0x0, symName: __ZN5Graph16isLayerReachableERK6VertexS2_, symObjAddr: 0xCD0, symBinAddr: 0x100002BE0, symSize: 0x12C }
  - { offsetInCU: 0x2B19B, offset: 0x2B19B, size: 0x8, addend: 0x0, symName: __ZN5Graph11visitVertexER6VertexS1_, symObjAddr: 0xDFC, symBinAddr: 0x100002D0C, symSize: 0xEC }
  - { offsetInCU: 0x2B239, offset: 0x2B239, size: 0x8, addend: 0x0, symName: __ZSt7forwardIK4EdgeEOT_RNSt16remove_referenceIS2_E4typeE, symObjAddr: 0x908, symBinAddr: 0x100002818, symSize: 0x14 }
  - { offsetInCU: 0x2B241, offset: 0x2B241, size: 0x8, addend: 0x0, symName: __ZN5Graph11bfsParallelEv, symObjAddr: 0x91C, symBinAddr: 0x10000282C, symSize: 0x3B4 }
  - { offsetInCU: 0x2B251, offset: 0x2B251, size: 0x8, addend: 0x0, symName: __ZNSt10__pair_getILm1EE16__const_move_getIKi4EdgeEEOKT0_OKSt4pairIT_S4_E, symObjAddr: 0x8E8, symBinAddr: 0x1000027F8, symSize: 0x20 }
  - { offsetInCU: 0x2B259, offset: 0x2B259, size: 0x8, addend: 0x0, symName: __ZSt7forwardIK4EdgeEOT_RNSt16remove_referenceIS2_E4typeE, symObjAddr: 0x908, symBinAddr: 0x100002818, symSize: 0x14 }
  - { offsetInCU: 0x2B2F0, offset: 0x2B2F0, size: 0x8, addend: 0x0, symName: __ZSt3getILm1EKi4EdgeEOKNSt13tuple_elementIXT_ESt4pairIT0_T1_EE4typeEOKS6_, symObjAddr: 0x8C8, symBinAddr: 0x1000027D8, symSize: 0x20 }
  - { offsetInCU: 0x2B2F8, offset: 0x2B2F8, size: 0x8, addend: 0x0, symName: __ZNSt10__pair_getILm1EE16__const_move_getIKi4EdgeEEOKT0_OKSt4pairIT_S4_E, symObjAddr: 0x8E8, symBinAddr: 0x1000027F8, symSize: 0x20 }
  - { offsetInCU: 0x2B30E, offset: 0x2B30E, size: 0x8, addend: 0x0, symName: __ZNSt10__pair_getILm0EE16__const_move_getIKi4EdgeEEOKT_OKSt4pairIS4_T0_E, symObjAddr: 0x8AC, symBinAddr: 0x1000027BC, symSize: 0x1C }
  - { offsetInCU: 0x2B316, offset: 0x2B316, size: 0x8, addend: 0x0, symName: __ZSt3getILm1EKi4EdgeEOKNSt13tuple_elementIXT_ESt4pairIT0_T1_EE4typeEOKS6_, symObjAddr: 0x8C8, symBinAddr: 0x1000027D8, symSize: 0x20 }
  - { offsetInCU: 0x2B3C8, offset: 0x2B3C8, size: 0x8, addend: 0x0, symName: __ZSt4moveIRKSt4pairIKi4EdgeEEONSt16remove_referenceIT_E4typeEOS7_, symObjAddr: 0x898, symBinAddr: 0x1000027A8, symSize: 0x14 }
  - { offsetInCU: 0x2B3D0, offset: 0x2B3D0, size: 0x8, addend: 0x0, symName: __ZNSt10__pair_getILm0EE16__const_move_getIKi4EdgeEEOKT_OKSt4pairIS4_T0_E, symObjAddr: 0x8AC, symBinAddr: 0x1000027BC, symSize: 0x1C }
  - { offsetInCU: 0x2B402, offset: 0x2B402, size: 0x8, addend: 0x0, symName: __ZSt3getILm0EKi4EdgeEOKNSt13tuple_elementIXT_ESt4pairIT0_T1_EE4typeEOKS6_, symObjAddr: 0x878, symBinAddr: 0x100002788, symSize: 0x20 }
  - { offsetInCU: 0x2B40A, offset: 0x2B40A, size: 0x8, addend: 0x0, symName: __ZSt4moveIRKSt4pairIKi4EdgeEEONSt16remove_referenceIT_E4typeEOS7_, symObjAddr: 0x898, symBinAddr: 0x1000027A8, symSize: 0x14 }
  - { offsetInCU: 0x2B448, offset: 0x2B448, size: 0x8, addend: 0x0, symName: __ZNSt6vectorIiSaIiEEC1Ev, symObjAddr: 0x858, symBinAddr: 0x100002768, symSize: 0x20 }
  - { offsetInCU: 0x2B450, offset: 0x2B450, size: 0x8, addend: 0x0, symName: __ZSt3getILm0EKi4EdgeEOKNSt13tuple_elementIXT_ESt4pairIT0_T1_EE4typeEOKS6_, symObjAddr: 0x878, symBinAddr: 0x100002788, symSize: 0x20 }
  - { offsetInCU: 0x2B497, offset: 0x2B497, size: 0x8, addend: 0x0, symName: __ZNSt12_Vector_baseIiSaIiEEC2Ev, symObjAddr: 0x838, symBinAddr: 0x100002748, symSize: 0x20 }
  - { offsetInCU: 0x2B49F, offset: 0x2B49F, size: 0x8, addend: 0x0, symName: __ZNSt6vectorIiSaIiEEC1Ev, symObjAddr: 0x858, symBinAddr: 0x100002768, symSize: 0x20 }
  - { offsetInCU: 0x2B4FF, offset: 0x2B4FF, size: 0x8, addend: 0x0, symName: __ZNSt12_Vector_baseIiSaIiEE12_Vector_implD1Ev, symObjAddr: 0x80C, symBinAddr: 0x10000271C, symSize: 0x2C }
  - { offsetInCU: 0x2B507, offset: 0x2B507, size: 0x8, addend: 0x0, symName: __ZNSt12_Vector_baseIiSaIiEEC2Ev, symObjAddr: 0x838, symBinAddr: 0x100002748, symSize: 0x20 }
  - { offsetInCU: 0x2B570, offset: 0x2B570, size: 0x8, addend: 0x0, symName: __ZSt7forwardI4EdgeEOT_RNSt16remove_referenceIS1_E4typeE, symObjAddr: 0x7F8, symBinAddr: 0x100002708, symSize: 0x14 }
  - { offsetInCU: 0x2B578, offset: 0x2B578, size: 0x8, addend: 0x0, symName: __ZNSt12_Vector_baseIiSaIiEE12_Vector_implD1Ev, symObjAddr: 0x80C, symBinAddr: 0x10000271C, symSize: 0x2C }
  - { offsetInCU: 0x2B585, offset: 0x2B585, size: 0x8, addend: 0x0, symName: __ZNSt10__pair_getILm1EE10__move_getIKi4EdgeEEOT0_OSt4pairIT_S4_E, symObjAddr: 0x7D8, symBinAddr: 0x1000026E8, symSize: 0x20 }
  - { offsetInCU: 0x2B58D, offset: 0x2B58D, size: 0x8, addend: 0x0, symName: __ZSt7forwardI4EdgeEOT_RNSt16remove_referenceIS1_E4typeE, symObjAddr: 0x7F8, symBinAddr: 0x100002708, symSize: 0x14 }
  - { offsetInCU: 0x2B622, offset: 0x2B622, size: 0x8, addend: 0x0, symName: __ZSt3getILm1EKi4EdgeEONSt13tuple_elementIXT_ESt4pairIT0_T1_EE4typeEOS6_, symObjAddr: 0x7B8, symBinAddr: 0x1000026C8, symSize: 0x20 }
  - { offsetInCU: 0x2B62A, offset: 0x2B62A, size: 0x8, addend: 0x0, symName: __ZNSt10__pair_getILm1EE10__move_getIKi4EdgeEEOT0_OSt4pairIT_S4_E, symObjAddr: 0x7D8, symBinAddr: 0x1000026E8, symSize: 0x20 }
  - { offsetInCU: 0x2B684, offset: 0x2B684, size: 0x8, addend: 0x0, symName: __ZSt7forwardIKiEOT_RNSt16remove_referenceIS1_E4typeE, symObjAddr: 0x7A4, symBinAddr: 0x1000026B4, symSize: 0x14 }
  - { offsetInCU: 0x2B68C, offset: 0x2B68C, size: 0x8, addend: 0x0, symName: __ZSt3getILm1EKi4EdgeEONSt13tuple_elementIXT_ESt4pairIT0_T1_EE4typeEOS6_, symObjAddr: 0x7B8, symBinAddr: 0x1000026C8, symSize: 0x20 }
  - { offsetInCU: 0x2B68D, offset: 0x2B68D, size: 0x8, addend: 0x0, symName: __ZNSt10__pair_getILm0EE10__move_getIKi4EdgeEEOT_OSt4pairIS4_T0_E, symObjAddr: 0x788, symBinAddr: 0x100002698, symSize: 0x1C }
  - { offsetInCU: 0x2B695, offset: 0x2B695, size: 0x8, addend: 0x0, symName: __ZSt7forwardIKiEOT_RNSt16remove_referenceIS1_E4typeE, symObjAddr: 0x7A4, symBinAddr: 0x1000026B4, symSize: 0x14 }
  - { offsetInCU: 0x2B740, offset: 0x2B740, size: 0x8, addend: 0x0, symName: __ZSt4moveIRSt4pairIKi4EdgeEEONSt16remove_referenceIT_E4typeEOS6_, symObjAddr: 0x774, symBinAddr: 0x100002684, symSize: 0x14 }
  - { offsetInCU: 0x2B748, offset: 0x2B748, size: 0x8, addend: 0x0, symName: __ZNSt10__pair_getILm0EE10__move_getIKi4EdgeEEOT_OSt4pairIS4_T0_E, symObjAddr: 0x788, symBinAddr: 0x100002698, symSize: 0x1C }
  - { offsetInCU: 0x2B77F, offset: 0x2B77F, size: 0x8, addend: 0x0, symName: __ZSt3getILm0EKi4EdgeEONSt13tuple_elementIXT_ESt4pairIT0_T1_EE4typeEOS6_, symObjAddr: 0x754, symBinAddr: 0x100002664, symSize: 0x20 }
  - { offsetInCU: 0x2B787, offset: 0x2B787, size: 0x8, addend: 0x0, symName: __ZSt4moveIRSt4pairIKi4EdgeEEONSt16remove_referenceIT_E4typeEOS6_, symObjAddr: 0x774, symBinAddr: 0x100002684, symSize: 0x14 }
  - { offsetInCU: 0x2B7E1, offset: 0x2B7E1, size: 0x8, addend: 0x0, symName: __ZN5GraphC1Ei, symObjAddr: 0x654, symBinAddr: 0x100002564, symSize: 0x100 }
  - { offsetInCU: 0x2B7E9, offset: 0x2B7E9, size: 0x8, addend: 0x0, symName: __ZSt3getILm0EKi4EdgeEONSt13tuple_elementIXT_ESt4pairIT0_T1_EE4typeEOS6_, symObjAddr: 0x754, symBinAddr: 0x100002664, symSize: 0x20 }
  - { offsetInCU: 0x2B983, offset: 0x2B983, size: 0x8, addend: 0x0, symName: __ZneRK6VertexS1_, symObjAddr: 0x624, symBinAddr: 0x100002534, symSize: 0x30 }
  - { offsetInCU: 0x2B98B, offset: 0x2B98B, size: 0x8, addend: 0x0, symName: __ZN5GraphC1Ei, symObjAddr: 0x654, symBinAddr: 0x100002564, symSize: 0x100 }
  - { offsetInCU: 0x2B9D4, offset: 0x2B9D4, size: 0x8, addend: 0x0, symName: __ZeqRK6VertexS1_, symObjAddr: 0x5BC, symBinAddr: 0x1000024CC, symSize: 0x68 }
  - { offsetInCU: 0x2B9DC, offset: 0x2B9DC, size: 0x8, addend: 0x0, symName: __ZneRK6VertexS1_, symObjAddr: 0x624, symBinAddr: 0x100002534, symSize: 0x30 }
  - { offsetInCU: 0x2BA0B, offset: 0x2BA0B, size: 0x8, addend: 0x0, symName: __ZN6Vertex5resetEv, symObjAddr: 0x574, symBinAddr: 0x100002484, symSize: 0x48 }
  - { offsetInCU: 0x2BA13, offset: 0x2BA13, size: 0x8, addend: 0x0, symName: __ZeqRK6VertexS1_, symObjAddr: 0x5BC, symBinAddr: 0x1000024CC, symSize: 0x68 }
  - { offsetInCU: 0x2BA6B, offset: 0x2BA6B, size: 0x8, addend: 0x0, symName: __ZSt3minImERKT_S2_S2_, symObjAddr: 0x53C, symBinAddr: 0x10000244C, symSize: 0x38 }
  - { offsetInCU: 0x2BA73, offset: 0x2BA73, size: 0x8, addend: 0x0, symName: __ZN6Vertex5resetEv, symObjAddr: 0x574, symBinAddr: 0x100002484, symSize: 0x48 }
  - { offsetInCU: 0x2BA98, offset: 0x2BA98, size: 0x8, addend: 0x0, symName: __ZNSt8__detail20_Prime_rehash_policy8_M_resetEm, symObjAddr: 0x518, symBinAddr: 0x100002428, symSize: 0x24 }
  - { offsetInCU: 0x2BAA0, offset: 0x2BAA0, size: 0x8, addend: 0x0, symName: __ZSt3minImERKT_S2_S2_, symObjAddr: 0x53C, symBinAddr: 0x10000244C, symSize: 0x38 }
  - { offsetInCU: 0x2BADB, offset: 0x2BADB, size: 0x8, addend: 0x0, symName: __ZNKSt8__detail20_Prime_rehash_policy8_M_stateEv, symObjAddr: 0x500, symBinAddr: 0x100002410, symSize: 0x18 }
  - { offsetInCU: 0x2BAE3, offset: 0x2BAE3, size: 0x8, addend: 0x0, symName: __ZNSt8__detail20_Prime_rehash_policy8_M_resetEm, symObjAddr: 0x518, symBinAddr: 0x100002428, symSize: 0x24 }
  - { offsetInCU: 0x2BB0A, offset: 0x2BB0A, size: 0x8, addend: 0x0, symName: __ZNKSt8__detail20_Prime_rehash_policy19_M_bkt_for_elementsEm, symObjAddr: 0x4C8, symBinAddr: 0x1000023D8, symSize: 0x38 }
  - { offsetInCU: 0x2BB12, offset: 0x2BB12, size: 0x8, addend: 0x0, symName: __ZNKSt8__detail20_Prime_rehash_policy8_M_stateEv, symObjAddr: 0x500, symBinAddr: 0x100002410, symSize: 0x18 }
  - { offsetInCU: 0x2BBA1, offset: 0x2BBA1, size: 0x8, addend: 0x0, symName: __ZNSt8__detail20_Prime_rehash_policyC1Ef, symObjAddr: 0x49C, symBinAddr: 0x1000023AC, symSize: 0x2C }
  - { offsetInCU: 0x2BBA9, offset: 0x2BBA9, size: 0x8, addend: 0x0, symName: __ZNKSt8__detail20_Prime_rehash_policy19_M_bkt_for_elementsEm, symObjAddr: 0x4C8, symBinAddr: 0x1000023D8, symSize: 0x38 }
  - { offsetInCU: 0x2BBB3, offset: 0x2BBB3, size: 0x8, addend: 0x0, symName: __ZNKSt8__detail18_Mod_range_hashingclEmm, symObjAddr: 0x46C, symBinAddr: 0x10000237C, symSize: 0x30 }
  - { offsetInCU: 0x2BBBB, offset: 0x2BBBB, size: 0x8, addend: 0x0, symName: __ZNSt8__detail20_Prime_rehash_policyC1Ef, symObjAddr: 0x49C, symBinAddr: 0x1000023AC, symSize: 0x2C }
  - { offsetInCU: 0x2BC47, offset: 0x2BC47, size: 0x8, addend: 0x0, symName: __ZNSt8__detail15_Hash_node_baseC1Ev, symObjAddr: 0x450, symBinAddr: 0x100002360, symSize: 0x1C }
  - { offsetInCU: 0x2BC4F, offset: 0x2BC4F, size: 0x8, addend: 0x0, symName: __ZNKSt8__detail18_Mod_range_hashingclEmm, symObjAddr: 0x46C, symBinAddr: 0x10000237C, symSize: 0x30 }
  - { offsetInCU: 0x2BC76, offset: 0x2BC76, size: 0x8, addend: 0x0, symName: __ZNSt8__detail15_Hash_node_baseC2Ev, symObjAddr: 0x434, symBinAddr: 0x100002344, symSize: 0x1C }
  - { offsetInCU: 0x2BC7E, offset: 0x2BC7E, size: 0x8, addend: 0x0, symName: __ZNSt8__detail15_Hash_node_baseC1Ev, symObjAddr: 0x450, symBinAddr: 0x100002360, symSize: 0x1C }
  - { offsetInCU: 0x2BCAF, offset: 0x2BCAF, size: 0x8, addend: 0x0, symName: __ZSt16__fill_bvector_nPmmb, symObjAddr: 0x3E0, symBinAddr: 0x1000022F0, symSize: 0x54 }
  - { offsetInCU: 0x2BCB7, offset: 0x2BCB7, size: 0x8, addend: 0x0, symName: __ZNSt8__detail15_Hash_node_baseC2Ev, symObjAddr: 0x434, symBinAddr: 0x100002344, symSize: 0x1C }
  - { offsetInCU: 0x2BD05, offset: 0x2BD05, size: 0x8, addend: 0x0, symName: __ZStplRKSt13_Bit_iteratorl, symObjAddr: 0x388, symBinAddr: 0x100002298, symSize: 0x58 }
  - { offsetInCU: 0x2BD0D, offset: 0x2BD0D, size: 0x8, addend: 0x0, symName: __ZSt16__fill_bvector_nPmmb, symObjAddr: 0x3E0, symBinAddr: 0x1000022F0, symSize: 0x54 }
  - { offsetInCU: 0x2BD52, offset: 0x2BD52, size: 0x8, addend: 0x0, symName: __ZNKSt13_Bit_iteratorixEl, symObjAddr: 0x358, symBinAddr: 0x100002268, symSize: 0x30 }
  - { offsetInCU: 0x2BD5A, offset: 0x2BD5A, size: 0x8, addend: 0x0, symName: __ZStplRKSt13_Bit_iteratorl, symObjAddr: 0x388, symBinAddr: 0x100002298, symSize: 0x58 }
  - { offsetInCU: 0x2BD95, offset: 0x2BD95, size: 0x8, addend: 0x0, symName: __ZNSt13_Bit_iteratorpLEl, symObjAddr: 0x330, symBinAddr: 0x100002240, symSize: 0x28 }
  - { offsetInCU: 0x2BD9D, offset: 0x2BD9D, size: 0x8, addend: 0x0, symName: __ZNKSt13_Bit_iteratorixEl, symObjAddr: 0x358, symBinAddr: 0x100002268, symSize: 0x30 }
  - { offsetInCU: 0x2BDD8, offset: 0x2BDD8, size: 0x8, addend: 0x0, symName: __ZNKSt13_Bit_iteratordeEv, symObjAddr: 0x2F0, symBinAddr: 0x100002200, symSize: 0x40 }
  - { offsetInCU: 0x2BDE0, offset: 0x2BDE0, size: 0x8, addend: 0x0, symName: __ZNSt13_Bit_iteratorpLEl, symObjAddr: 0x330, symBinAddr: 0x100002240, symSize: 0x28 }
  - { offsetInCU: 0x2BE5F, offset: 0x2BE5F, size: 0x8, addend: 0x0, symName: __ZNSt13_Bit_iteratorC1EPmj, symObjAddr: 0x2C0, symBinAddr: 0x1000021D0, symSize: 0x30 }
  - { offsetInCU: 0x2BE67, offset: 0x2BE67, size: 0x8, addend: 0x0, symName: __ZNKSt13_Bit_iteratordeEv, symObjAddr: 0x2F0, symBinAddr: 0x100002200, symSize: 0x40 }
  - { offsetInCU: 0x2BEBD, offset: 0x2BEBD, size: 0x8, addend: 0x0, symName: __ZNSt13_Bit_iteratorC1Ev, symObjAddr: 0x298, symBinAddr: 0x1000021A8, symSize: 0x28 }
  - { offsetInCU: 0x2BEC5, offset: 0x2BEC5, size: 0x8, addend: 0x0, symName: __ZNSt13_Bit_iteratorC1EPmj, symObjAddr: 0x2C0, symBinAddr: 0x1000021D0, symSize: 0x30 }
  - { offsetInCU: 0x2BED3, offset: 0x2BED3, size: 0x8, addend: 0x0, symName: __ZNSt18_Bit_iterator_base7_M_incrEl, symObjAddr: 0x1E8, symBinAddr: 0x1000020F8, symSize: 0xB0 }
  - { offsetInCU: 0x2BEDB, offset: 0x2BEDB, size: 0x8, addend: 0x0, symName: __ZNSt13_Bit_iteratorC1Ev, symObjAddr: 0x298, symBinAddr: 0x1000021A8, symSize: 0x28 }
  - { offsetInCU: 0x2BF83, offset: 0x2BF83, size: 0x8, addend: 0x0, symName: __ZNSt18_Bit_iterator_baseC2EPmj, symObjAddr: 0x1B4, symBinAddr: 0x1000020C4, symSize: 0x34 }
  - { offsetInCU: 0x2BF8B, offset: 0x2BF8B, size: 0x8, addend: 0x0, symName: __ZNSt18_Bit_iterator_base7_M_incrEl, symObjAddr: 0x1E8, symBinAddr: 0x1000020F8, symSize: 0xB0 }
  - { offsetInCU: 0x2BFAA, offset: 0x2BFAA, size: 0x8, addend: 0x0, symName: __ZNSt14_Bit_referenceaSEb, symObjAddr: 0x13C, symBinAddr: 0x10000204C, symSize: 0x78 }
  - { offsetInCU: 0x2BFB2, offset: 0x2BFB2, size: 0x8, addend: 0x0, symName: __ZNSt18_Bit_iterator_baseC2EPmj, symObjAddr: 0x1B4, symBinAddr: 0x1000020C4, symSize: 0x34 }
  - { offsetInCU: 0x2BFEC, offset: 0x2BFEC, size: 0x8, addend: 0x0, symName: __ZNKSt14_Bit_referencecvbEv, symObjAddr: 0x108, symBinAddr: 0x100002018, symSize: 0x34 }
  - { offsetInCU: 0x2BFF4, offset: 0x2BFF4, size: 0x8, addend: 0x0, symName: __ZNSt14_Bit_referenceaSEb, symObjAddr: 0x13C, symBinAddr: 0x10000204C, symSize: 0x78 }
  - { offsetInCU: 0x2C072, offset: 0x2C072, size: 0x8, addend: 0x0, symName: __ZNSt14_Bit_referenceC1EPmm, symObjAddr: 0xD4, symBinAddr: 0x100001FE4, symSize: 0x34 }
  - { offsetInCU: 0x2C07A, offset: 0x2C07A, size: 0x8, addend: 0x0, symName: __ZNKSt14_Bit_referencecvbEv, symObjAddr: 0x108, symBinAddr: 0x100002018, symSize: 0x34 }
  - { offsetInCU: 0x2C0CA, offset: 0x2C0CA, size: 0x8, addend: 0x0, symName: __ZSt16__deque_buf_sizem, symObjAddr: 0xA4, symBinAddr: 0x100001FB4, symSize: 0x30 }
  - { offsetInCU: 0x2C0D2, offset: 0x2C0D2, size: 0x8, addend: 0x0, symName: __ZNSt14_Bit_referenceC1EPmm, symObjAddr: 0xD4, symBinAddr: 0x100001FE4, symSize: 0x34 }
  - { offsetInCU: 0x2C0DB, offset: 0x2C0DB, size: 0x8, addend: 0x0, symName: __ZNKSt4hashIiEclEi, symObjAddr: 0x8C, symBinAddr: 0x100001F9C, symSize: 0x18 }
  - { offsetInCU: 0x2C0E3, offset: 0x2C0E3, size: 0x8, addend: 0x0, symName: __ZSt16__deque_buf_sizem, symObjAddr: 0xA4, symBinAddr: 0x100001FB4, symSize: 0x30 }
  - { offsetInCU: 0x2C11D, offset: 0x2C11D, size: 0x8, addend: 0x0, symName: __ZNKSt6chrono8durationIxSt5ratioILl1ELl1000000000EEE5countEv, symObjAddr: 0x74, symBinAddr: 0x100001F84, symSize: 0x18 }
  - { offsetInCU: 0x2C125, offset: 0x2C125, size: 0x8, addend: 0x0, symName: __ZNKSt4hashIiEclEi, symObjAddr: 0x8C, symBinAddr: 0x100001F9C, symSize: 0x18 }
  - { offsetInCU: 0x2C1CD, offset: 0x2C1CD, size: 0x8, addend: 0x0, symName: __ZNSt6chrono8durationIxSt5ratioILl1ELl1000000000EEEC1IxvEERKT_, symObjAddr: 0x4C, symBinAddr: 0x100001F5C, symSize: 0x28 }
  - { offsetInCU: 0x2C1D5, offset: 0x2C1D5, size: 0x8, addend: 0x0, symName: __ZNKSt6chrono8durationIxSt5ratioILl1ELl1000000000EEE5countEv, symObjAddr: 0x74, symBinAddr: 0x100001F84, symSize: 0x18 }
  - { offsetInCU: 0x2C1D7, offset: 0x2C1D7, size: 0x8, addend: 0x0, symName: __ZNSt14numeric_limitsIiE3maxEv, symObjAddr: 0x44, symBinAddr: 0x100001F54, symSize: 0x8 }
  - { offsetInCU: 0x2C1DF, offset: 0x2C1DF, size: 0x8, addend: 0x0, symName: __ZNSt6chrono8durationIxSt5ratioILl1ELl1000000000EEEC1IxvEERKT_, symObjAddr: 0x4C, symBinAddr: 0x100001F5C, symSize: 0x28 }
  - { offsetInCU: 0x2C201, offset: 0x2C201, size: 0x8, addend: 0x0, symName: __ZdlPvS_, symObjAddr: 0x2C, symBinAddr: 0x100001F3C, symSize: 0x18 }
  - { offsetInCU: 0x2C209, offset: 0x2C209, size: 0x8, addend: 0x0, symName: __ZNSt14numeric_limitsIiE3maxEv, symObjAddr: 0x44, symBinAddr: 0x100001F54, symSize: 0x8 }
  - { offsetInCU: 0x2C241, offset: 0x2C241, size: 0x8, addend: 0x0, symName: __ZnwmPv, symObjAddr: 0x14, symBinAddr: 0x100001F24, symSize: 0x18 }
  - { offsetInCU: 0x2C249, offset: 0x2C249, size: 0x8, addend: 0x0, symName: __ZdlPvS_, symObjAddr: 0x2C, symBinAddr: 0x100001F3C, symSize: 0x18 }
  - { offsetInCU: 0x2C2AC, offset: 0x2C2AC, size: 0x8, addend: 0x0, symName: __ZSt17__size_to_integerm, symObjAddr: 0x0, symBinAddr: 0x100001F10, symSize: 0x14 }
  - { offsetInCU: 0x2C2B4, offset: 0x2C2B4, size: 0x8, addend: 0x0, symName: __ZnwmPv, symObjAddr: 0x14, symBinAddr: 0x100001F24, symSize: 0x18 }
  - { offsetInCU: 0x45, offset: 0x2C2FB, size: 0x8, addend: 0x0, symName: ___aarch64_have_lse_atomics, symObjAddr: 0x263, symBinAddr: 0x1000182E8, symSize: 0x0 }
...
